ccopy_reg
_reconstructor
p1
(cpandas.core.frame
DataFrame
p2
c__builtin__
object
p3
NtRp4
(dp5
S'_metadata'
p6
(lp7
sS'_typ'
p8
S'dataframe'
p9
sS'_data'
p10
g1
(cpandas.core.internals
BlockManager
p11
g3
NtRp12
((lp13
cpandas.core.index
_new_Index
p14
(cpandas.core.index
Index
p15
(dp16
S'data'
p17
cnumpy.core.multiarray
_reconstruct
p18
(cnumpy
ndarray
p19
(I0
tS'b'
tRp20
(I1
(L6L
tcnumpy
dtype
p21
(S'O8'
I0
I1
tRp22
(I3
S'|'
NNNI-1
I-1
I63
tbI00
(lp23
S'base'
p24
aS'neck'
p25
aS'tip'
p26
aS'media'
p27
aS'bud'
p28
aS'mom'
p29
atbsS'name'
p30
NstRp31
ag14
(g15
(dp32
g17
g18
(g19
(I0
tS'b'
tRp33
(I1
(L216L
tg22
I00
(lp34
S'YPD_042515_003_RFPstack_001'
p35
aS'YPD_042515_009_RFPstack_007'
p36
aS'YPD_042515_009_RFPstack_008'
p37
aS'YPD_042515_009_RFPstack_010'
p38
aS'YPD_042515_011_RFPstack_011'
p39
aS'YPD_042515_011_RFPstack_012'
p40
aS'YPD_042515_013_RFPstack_016'
p41
aS'YPD_042515_015_RFPstack_017'
p42
aS'YPD_042515_017_RFPstack_020'
p43
aS'YPD_042515_019_RFPstack_023'
p44
aS'YPD_042515_019_RFPstack_025'
p45
aS'YPD_042715_001_RFPstack_027'
p46
aS'YPD_042715_005_RFPstack_033'
p47
aS'YPD_042715_005_RFPstack_034'
p48
aS'YPD_042715_009_RFPstack_038'
p49
aS'YPD_042715_009_RFPstack_040'
p50
aS'YPD_042715_011_RFPstack_045'
p51
aS'YPD_042715_013_RFPstack_048'
p52
aS'YPD_042715_013_RFPstack_050'
p53
aS'YPD_042715_015_RFPstack_051'
p54
aS'YPD_042715_015_RFPstack_052'
p55
aS'YPD_042715_017_RFPstack_056'
p56
aS'YPD_042715_017_RFPstack_057'
p57
aS'YPD_042915_003_RFPstack_059'
p58
aS'YPD_042915_005_RFPstack_060'
p59
aS'YPD_042915_005_RFPstack_061'
p60
aS'YPD_042915_007_RFPstack_062'
p61
aS'YPD_042915_007_RFPstack_063'
p62
aS'YPD_042915_011_RFPstack_066'
p63
aS'YPD_042915_013_RFPstack_068'
p64
aS'YPD_042915_017_RFPstack_071'
p65
aS'YPD_042915_021_RFPstack_078'
p66
aS'YPD_042915_021_RFPstack_079'
p67
aS'YPD_052315_001_RFPstack_001'
p68
aS'YPD_052315_001_RFPstack_002'
p69
aS'YPD_052315_003_RFPstack_003'
p70
aS'YPD_052315_003_RFPstack_004'
p71
aS'YPD_052315_003_RFPstack_005'
p72
aS'YPD_052315_005_RFPstack_007'
p73
aS'YPD_052315_005_RFPstack_008'
p74
aS'YPD_052315_007_RFPstack_010'
p75
aS'YPD_052315_009_RFPstack_012'
p76
aS'YPD_052315_011_RFPstack_013'
p77
aS'YPD_052315_011_RFPstack_014'
p78
aS'YPD_052315_013_RFPstack_015'
p79
aS'YPD_052315_013_RFPstack_016'
p80
aS'YPD_052315_015_RFPstack_018'
p81
aS'YPD_052315_019_RFPstack_022'
p82
aS'YPD_052315_019_RFPstack_023'
p83
aS'YPD_052315_021_RFPstack_026'
p84
aS'YPD_052315_023_RFPstack_029'
p85
aS'YPD_052315_023_RFPstack_030'
p86
aS'YPD_052315_025_RFPstack_031'
p87
aS'YPD_052315_027_RFPstack_032'
p88
aS'YPD_052315_031_RFPstack_034'
p89
aS'YPD_052315_031_RFPstack_035'
p90
aS'YPE_042515_005_RFPstack_001'
p91
aS'YPE_042515_011_RFPstack_009'
p92
aS'YPE_042515_017_RFPstack_013'
p93
aS'YPE_042515_017_RFPstack_014'
p94
aS'YPE_042515_019_RFPstack_017'
p95
aS'YPE_042715_001_RFPstack_022'
p96
aS'YPE_042715_005_RFPstack_029'
p97
aS'YPE_042715_005_RFPstack_030'
p98
aS'YPE_042715_007_RFPstack_033'
p99
aS'YPE_042715_007_RFPstack_035'
p100
aS'YPE_042715_007_RFPstack_036'
p101
aS'YPE_042715_011_RFPstack_043'
p102
aS'YPE_042715_013_RFPstack_048'
p103
aS'YPE_042715_015_RFPstack_050'
p104
aS'YPE_042715_020_RFPstack_055'
p105
aS'YPE_042715_023_RFPstack_060'
p106
aS'YPE_052315_003_RFPstack_002'
p107
aS'YPE_052315_003_RFPstack_003'
p108
aS'YPE_052315_003_RFPstack_004'
p109
aS'YPE_052315_003_RFPstack_005'
p110
aS'YPE_052315_005_RFPstack_008'
p111
aS'YPE_052315_007_RFPstack_009'
p112
aS'YPE_052315_007_RFPstack_010'
p113
aS'YPE_052315_009_RFPstack_011'
p114
aS'YPE_052315_011_RFPstack_012'
p115
aS'YPE_052315_011_RFPstack_013'
p116
aS'YPE_052315_011_RFPstack_014'
p117
aS'YPE_052315_011_RFPstack_015'
p118
aS'YPE_052315_013_RFPstack_016'
p119
aS'YPE_052315_013_RFPstack_018'
p120
aS'YPE_052315_013_RFPstack_019'
p121
aS'YPE_052315_015_RFPstack_020'
p122
aS'YPE_052315_015_RFPstack_021'
p123
aS'YPE_052315_017_RFPstack_022'
p124
aS'YPE_052315_019_RFPstack_023'
p125
aS'YPE_052315_019_RFPstack_024'
p126
aS'YPE_052315_019_RFPstack_025'
p127
aS'YPE_052315_021_RFPstack_029'
p128
aS'YPE_052315_023_RFPstack_030'
p129
aS'YPE_052315_025_RFPstack_033'
p130
aS'YPE_052315_025_RFPstack_034'
p131
aS'YPE_052315_027_RFPstack_035'
p132
aS'YPE_052315_030_RFPstack_037'
p133
aS'YPE_052315_032_RFPstack_039'
p134
aS'YPE_052315_032_RFPstack_043'
p135
aS'YPE_052315_034_RFPstack_044'
p136
aS'YPE_c42515_003_RFPstack_067'
p137
aS'YPE_c42515_005_RFPstack_069'
p138
aS'YPE_c42515_007_RFPstack_071'
p139
aS'YPE_c42515_009_RFPstack_074'
p140
aS'YPE_c42515_011_RFPstack_076'
p141
aS'YPE_c42515_011_RFPstack_077'
p142
aS'YPE_c42515_013_RFPstack_081'
p143
aS'YPE_c42515_013_RFPstack_082'
p144
aS'YPE_c42515_017_RFPstack_084'
p145
aS'YPL_042515_001_RFPstack_002'
p146
aS'YPL_042515_001_RFPstack_005'
p147
aS'YPL_042515_011_RFPstack_012'
p148
aS'YPL_042515_015_RFPstack_016'
p149
aS'YPL_042515_017_RFPstack_020'
p150
aS'YPL_042515_019_RFPstack_024'
p151
aS'YPL_042515_021_RFPstack_028'
p152
aS'YPL_042515_021_RFPstack_029'
p153
aS'YPL_042515_023_RFPstack_033'
p154
aS'YPL_042515_023_RFPstack_035'
p155
aS'YPL_042515_030_RFPstack_039'
p156
aS'YPL_042515_032_RFPstack_044'
p157
aS'YPL_042515_032_RFPstack_045'
p158
aS'YPL_042715_004_RFPstack_051'
p159
aS'YPL_042715_006_RFPstack_052'
p160
aS'YPL_042715_006_RFPstack_053'
p161
aS'YPL_042715_010_RFPstack_057'
p162
aS'YPL_042715_010_RFPstack_058'
p163
aS'YPL_042715_012_olp14RFPstack_059'
p164
aS'YPL_042715_016_RFPstack_063'
p165
aS'YPL_042715_018_RFPstack_066'
p166
aS'YPL_042715_018_RFPstack_067'
p167
aS'YPL_042715_020_RFPstack_068'
p168
aS'YPL_042715_022_RFPstack_070'
p169
aS'YPL_042715_024_RFPstack_071'
p170
aS'YPL_042715_026_RFPstack_075'
p171
aS'YPL_042715_028_RFPstack_077'
p172
aS'YPL_042715_030_RFPstack_080'
p173
aS'YPL_042915_001_RFPstack_082'
p174
aS'YPL_042915_001_RFPstack_083'
p175
aS'YPL_042915_005_RFPstack_089'
p176
aS'YPL_042915_007_RFPstack_090'
p177
aS'YPL_052315_003_RFPstack_002'
p178
aS'YPL_052315_005_RFPstack_004'
p179
aS'YPL_052315_005_RFPstack_005'
p180
aS'YPL_052315_007_RFPstack_007'
p181
aS'YPL_052315_007_RFPstack_008'
p182
aS'YPL_052315_009_RFPstack_010'
p183
aS'YPL_052315_009_RFPstack_011'
p184
aS'YPL_052315_011_RFPstack_013'
p185
aS'YPL_052315_011_RFPstack_014'
p186
aS'YPL_052315_013_RFPstack_016'
p187
aS'YPL_052315_015_RFPstack_018'
p188
aS'YPL_052315_017_RFPstack_021'
p189
aS'YPL_052315_017_RFPstack_022'
p190
aS'YPL_052315_017_RFPstack_023'
p191
aS'YPL_052315_019_RFPstack_024'
p192
aS'YPL_052315_021_RFPstack_027'
p193
aS'YPL_052315_021_RFPstack_028'
p194
aS'YPL_052315_023_RFPstack_030'
p195
aS'YPL_052315_023_RFPstack_031'
p196
aS'YPL_052315_023_RFPstack_032'
p197
aS'YPL_052315_025_RFPstack_033'
p198
aS'YPL_052315_025_RFPstack_036'
p199
aS'YPL_052315_027_RFPstack_037'
p200
aS'YPL_052315_027_RFPstack_038'
p201
aS'YPL_052315_029_RFPstack_040'
p202
aS'YPL_052315_031_RFPstack_043'
p203
aS'YPL_052315_031_RFPstack_045'
p204
aS'YPR_042715_003_RFPstack_004'
p205
aS'YPR_042715_007_RFPstack_010'
p206
aS'YPR_042715_009_RFPstack_014'
p207
aS'YPR_042715_009_RFPstack_015'
p208
aS'YPR_042715_011_RFPstack_017'
p209
aS'YPR_042715_011_RFPstack_018'
p210
aS'YPR_042715_011_RFPstack_020'
p211
aS'YPR_042715_011_RFPstack_021'
p212
aS'YPR_042715_013_RFPstack_024'
p213
aS'YPR_042715_021_RFPstack_034'
p214
aS'YPR_042715_032_RFPstack_043'
p215
aS'YPR_042715_032_RFPstack_047'
p216
aS'YPR_042715_034_RFPstack_050'
p217
aS'YPR_042715_036_RFPstack_051'
p218
aS'YPR_042715_036_RFPstack_052'
p219
aS'YPR_042915_005_RFPstack_058'
p220
aS'YPR_042915_007_RFPstack_062'
p221
aS'YPR_042915_009_RFPstack_067'
p222
aS'YPR_042915_012_RFPstack_072'
p223
aS'YPR_042915_022_RFPstack_089'
p224
aS'YPR_042915_022_RFPstack_090'
p225
aS'YPR_042915_022_RFPstack_091'
p226
aS'YPR_042915_022_RFPstack_093'
p227
aS'YPR_042915_028_RFPstack_099'
p228
aS'YPR_052315_001_RFPstack_000'
p229
aS'YPR_052315_001_RFPstack_001'
p230
aS'YPR_052315_004_RFPstack_002'
p231
aS'YPR_052315_006_RFPstack_006'
p232
aS'YPR_052315_006_RFPstack_007'
p233
aS'YPR_052315_006_RFPstack_008'
p234
aS'YPR_052315_008_RFPstack_011'
p235
aS'YPR_052315_012_RFPstack_015'
p236
aS'YPR_052315_014_RFPstack_018'
p237
aS'YPR_052315_014_RFPstack_019'
p238
aS'YPR_052315_016_RFPstack_020'
p239
aS'YPR_052315_018_RFPstack_022'
p240
aS'YPR_052315_020_RFPstack_023'
p241
aS'YPR_052315_022_RFPstack_026'
p242
aS'YPR_052315_024_RFPstack_029'
p243
aS'YPR_052315_024_RFPstack_030'
p244
aS'YPR_052315_027_RFPstack_032'
p245
aS'YPR_052315_029_RFPstack_033'
p246
aS'YPR_052315_031_RFPstack_034'
p247
aS'YPR_052315_033_RFPstack_035'
p248
aS'YPR_052315_033_RFPstack_036'
p249
aS'YPR_052315_033_RFPstack_040'
p250
atbsg30
NstRp251
a(lp252
g18
(g19
(I0
tS'b'
tRp253
(I1
(L4L
L216L
tg22
I00
(lp254
(F-0.99999986054773249
F3.6124629065881209e-08
F-1.7897046067361089e-08
tp255
a(F-0.99999977687287078
F-3.2950753903193686e-08
F-5.1132517331353711e-08
tp256
a(F-0.99999997875272695
F-9.677436629829117e-10
F-1.0583721232748644e-08
tp257
a(F-1.0000001895648492
F-1.0915299264446787e-07
F1.0483947754380551e-07
tp258
a(F-1.0000001107555423
F-3.056066311124539e-08
F-2.6024618460240845e-08
tp259
a(F-0.99999968120516503
F-1.1260713606020545e-07
F9.6330261101229553e-08
tp260
a(F-1.0000002558926679
F1.6564136418040221e-07
F4.0661525479990246e-08
tp261
a(F-0.99999999881700674
F4.5935466430613303e-08
F1.4074297283173109e-09
tp262
a(F-1.0000000133278535
F5.3609873873483593e-08
F-1.9775696635804252e-08
tp263
a(F-0.99999993295220468
F-1.3145512234302714e-08
F9.8390201763720597e-08
tp264
a(F-1.0000000141197436
F-6.8698494892771578e-08
F4.4682738398194033e-08
tp265
a(F-1.0000000643998268
F2.8838559984478707e-08
F-4.9893933429245862e-09
tp266
a(F-0.99999993304205947
F3.5852461088836662e-07
F3.8152893289122858e-08
tp267
a(F-0.99999997626241299
F-7.663726142581595e-08
F-1.54951406372561e-07
tp268
a(F-0.99999995032782363
F5.1143356216698521e-08
F7.6390071379606184e-08
tp269
a(F-0.99999999458938826
F-3.984687690916644e-08
F8.6109115615684573e-08
tp270
a(F-1.0000000198045573
F-7.7287060307185129e-08
F-6.6890974537159309e-08
tp271
a(F-1.0000001729259882
F-1.3423053779604288e-09
F-1.507775850839721e-07
tp272
a(F-0.99999997778624861
F7.9833242239146784e-08
F7.5536042754009713e-08
tp273
a(F-0.9999998060807771
F1.4639992040876848e-07
F7.817315017533133e-08
tp274
a(F-1.0000000331162822
F1.9724867073023233e-08
F-4.0857251581982723e-08
tp275
a(F-0.99999998355028152
F7.9009832898435661e-08
F-6.8533555719341166e-08
tp276
a(F-1.0000000884502684
F6.7517758051138799e-09
F2.907163021426129e-08
tp277
a(F-1.0000000195675205
F1.8682864588726034e-08
F1.9698083386643361e-08
tp278
a(F-1.0000000243817198
F6.0490393138934451e-08
F-8.4358835472642113e-09
tp279
a(F-1.0000000208768931
F1.012421517732065e-07
F-3.7395452290311937e-08
tp280
a(F-1.0000001081116914
F-5.1263310041349541e-08
F-8.7572074036756931e-09
tp281
a(F-1.0000000132771314
F-1.0795935700969039e-08
F-7.2451089572211913e-09
tp282
a(F-0.99999995078285142
F-8.6171205282425944e-08
F8.8671531006667692e-08
tp283
a(F-1.0000003073270971
F1.6722142426317532e-07
F3.061484254995861e-08
tp284
a(F-0.99999995571228828
F-4.0529570810576843e-09
F6.7674084114344168e-09
tp285
a(F-0.99999996080152342
F3.3614257599623443e-08
F1.3845677493407038e-08
tp286
a(F-1.0000002075157131
F1.850594807395467e-07
F-9.7645982410909937e-09
tp287
a(F-1.0000002011577251
F-5.6446351370809111e-08
F-5.1406794376873677e-08
tp288
a(F-0.99999997635279758
F-4.9617844055660498e-08
F7.3737236316873123e-08
tp289
a(F-1.0000000120012578
F1.2223907175368254e-07
F7.0213456826451193e-08
tp290
a(F-0.99999989399724587
F5.9897204973680118e-08
F-9.4241334736011595e-08
tp291
a(F-1.0000000587390643
F4.3681864791977887e-08
F2.2888095863038416e-08
tp292
a(F-0.99999998347853669
F-3.1096307306910376e-08
F1.0866551658494927e-08
tp293
a(F-0.99999999659890726
F9.0487171977571279e-08
F-5.912872325097851e-08
tp294
a(F-1.0000000891780318
F-3.3724419479241874e-08
F1.1448710512951266e-07
tp295
a(F-0.99999996990340234
F6.9929008805758031e-08
F1.8633095510978137e-08
tp296
a(F-0.99999972680920646
F-4.6456397395644444e-08
F-5.4192841769662436e-08
tp297
a(F-1.0000001215523939
F1.1641632458037066e-07
F5.2857263455052816e-08
tp298
a(F-1.0000001672701773
F-1.0690021556847285e-07
F6.4638152164064877e-08
tp299
a(F-1.0000000231683701
F-5.0868497414313651e-08
F6.540685637546062e-08
tp300
a(F-1.0000000547538983
F9.1063373286459637e-08
F-1.4291569705449092e-08
tp301
a(F-0.99999998438804871
F1.7138008789885362e-08
F-4.3694144413741753e-08
tp302
a(F-0.99999979006290474
F1.6459032736726442e-07
F7.5199858784458229e-08
tp303
a(F-1.0000000101268036
F-4.7957089854833157e-08
F2.8628942994046724e-08
tp304
a(F-0.99999988906553572
F-5.2312773668461432e-08
F3.9270815488379185e-09
tp305
a(F-1.0000000244165319
F-9.0320152024148115e-08
F-9.1368088650511936e-09
tp306
a(F-0.99999995245902928
F-5.571155514694226e-08
F-5.2329492739033867e-08
tp307
a(F-1.0000000187867932
F2.524891340449642e-08
F1.3901332529542287e-08
tp308
a(F-1.0000002965389774
F-5.4056814358105498e-08
F9.2765592096810678e-08
tp309
a(F-0.99999994217578614
F-7.3060556937676324e-08
F-9.2730332967860818e-08
tp310
a(F-1.000000138579535
F3.3931999987579786e-08
F3.580822771631631e-08
tp311
a(F-1.0000000130957443
F6.5751681432857367e-08
F7.0261497064905143e-08
tp312
a(F-0.99999989736069228
F-6.8763628569001867e-08
F-2.9275777357895549e-09
tp313
a(F-0.9999998560348935
F9.5185525017527084e-08
F2.9726610506486395e-08
tp314
a(F-1.0000001746986147
F-6.7642312195914656e-08
F-2.984592839538891e-08
tp315
a(F-0.99999992994625453
F3.4232269019440764e-08
F3.4512024349453441e-09
tp316
a(F-1.000000027502459
F7.7168775369784726e-08
F8.7422195038655559e-08
tp317
a(F-1.000000039220966
F3.6026315042292367e-08
F7.4504780567252737e-08
tp318
a(F-1.0000000187661096
F7.9468310598684866e-08
F-1.3394250153453413e-08
tp319
a(F-1.0000001201811735
F-3.0339141865454167e-08
F-8.7030332718285308e-08
tp320
a(F-0.99999993847008284
F8.9094859045957264e-08
F4.9433812598920213e-08
tp321
a(F-1.0000000127128086
F7.2579867449462654e-08
F-3.9887881886357945e-09
tp322
a(F-0.99999991955674528
F8.563053732757453e-08
F-7.6347478339400254e-08
tp323
a(F-0.9999999344839583
F-5.786243506555877e-08
F-8.2034158577215521e-08
tp324
a(F-0.99999992211170707
F-6.6300274159658557e-08
F-5.6601721087901069e-08
tp325
a(F-1.0000000510695983
F1.3476458615713227e-08
F1.2731788512354569e-07
tp326
a(F-0.99999992625947165
F5.2540304551484951e-08
F-5.8417512605046795e-08
tp327
a(F-0.99999982888393379
F8.1386473560485229e-08
F-4.2496461016838794e-08
tp328
a(F-0.99999999308403442
F-2.8612013203144215e-08
F1.5568495381756975e-08
tp329
a(F-0.99999997579671018
F-6.08836980831029e-08
F-5.0487936720244875e-08
tp330
a(F-1.0000002882961723
F1.8397751855303568e-07
F3.347477783854913e-08
tp331
a(F-1.0000000524888719
F6.0077949726178304e-08
F-2.6577629208546227e-08
tp332
a(F-1.0000002163409771
F9.4173339348913032e-08
F-7.73628512362734e-08
tp333
a(F-1.0000001092453614
F1.0728990718078535e-07
F-3.1011427648053314e-08
tp334
a(F-1.0000000361189028
F3.361302303162006e-08
F-1.2920853675879584e-07
tp335
a(F-1.0000003251790828
F-1.4839005040012676e-07
F5.3375497577334841e-08
tp336
a(F-0.99999998516145272
F5.1277124324400347e-08
F1.01621563830534e-07
tp337
a(F-1.0000000722948119
F4.9817574065968984e-08
F3.8254133194470796e-10
tp338
a(F-1.0000000284671635
F-4.8077146264091652e-08
F5.4480802091916303e-08
tp339
a(F-1.0000000243949621
F-4.938509912122413e-08
F5.2962158658687031e-08
tp340
a(F-0.99999995558977139
F-4.6791353014441484e-08
F-1.2669280069488309e-08
tp341
a(F-1.0000002393620866
F1.5926376573105472e-07
F4.227024597014406e-08
tp342
a(F-0.99999991225534224
F-1.0738072298011048e-07
F-6.0531450074563509e-08
tp343
a(F-1.000000000834848
F1.3341394544674756e-08
F7.3330848948671701e-08
tp344
a(F-0.99999994546529525
F-3.036216011942372e-08
F5.2271257322544784e-08
tp345
a(F-1.0000000844955963
F-3.6401034630983986e-08
F6.5619853550913376e-08
tp346
a(F-1.0000002944883413
F1.7864248835763874e-07
F-6.2662319777473385e-11
tp347
a(F-1.0000001983962754
F-1.4739610731950847e-07
F5.6060067255003787e-08
tp348
a(F-1.0000000060669474
F-5.4173005636926064e-08
F-5.9226066495554619e-08
tp349
a(F-0.99999984378751794
F-9.0718679235379796e-09
F-2.7468023411358899e-09
tp350
a(F-1.0000001869528576
F1.7751152148193228e-07
F-5.7000817843544382e-08
tp351
a(F-1.0000000117978944
F1.3508325791278253e-08
F-7.1945833735043152e-08
tp352
a(F-0.99999992253147951
F2.787364428158412e-08
F-1.1272885291901957e-07
tp353
a(F-1.0000000313024016
F-3.4593907627389342e-08
F-1.1330592641911608e-07
tp354
a(F-1.0000002235256802
F-6.9371223432312945e-08
F1.20648226520359e-07
tp355
a(F-0.9999996468401795
F3.7695794041781028e-08
F-4.1937497918809186e-08
tp356
a(F-1.000000017328297
F-9.3337209072785754e-09
F1.00535693547954e-07
tp357
a(F-1.0000002243732053
F3.1830847735392354e-08
F-4.0392242883768859e-08
tp358
a(F-1.0000000011805232
F5.1406682022303585e-08
F-1.0254410121035562e-07
tp359
a(F-1.000000152286834
F1.5688062404706216e-08
F3.0533541917066032e-08
tp360
a(F-1.0000000201402521
F2.5439398143589642e-08
F5.007800285561359e-08
tp361
a(F-1.0000001041268369
F-3.75272879438171e-09
F1.2480118938285045e-08
tp362
a(F-0.99999997449678113
F-1.4750138443986316e-08
F-3.8292194304290206e-08
tp363
a(F-0.99999994046638596
F-7.456990358534199e-08
F1.1528827004170239e-07
tp364
a(F-0.99999996754982923
F1.0712303155635539e-08
F2.7076066055897741e-08
tp365
a(F-1.0000000762924914
F-8.374033344527021e-08
F-9.1188525397356557e-08
tp366
a(F-0.99999993545926014
F4.4453905223562629e-08
F9.5814310485664578e-08
tp367
a(F-0.99999997694085185
F1.5831842503644111e-09
F-3.6073189768615066e-08
tp368
a(F-0.99999993442372803
F6.5062178311592334e-08
F-1.3012570487802577e-07
tp369
a(F-0.99999989330187056
F1.0127400340564918e-07
F-6.638205518605389e-08
tp370
a(F-1.0000000539985849
F-1.1195001192731979e-07
F-9.6668499871555014e-09
tp371
a(F-0.99999995463854496
F-3.0330434164227427e-08
F1.1522792375817659e-07
tp372
a(F-0.99999995509433393
F-1.2614224997875567e-07
F-4.7286197402129915e-08
tp373
a(F-1.0000000474243875
F1.0750252421587447e-07
F4.1193989996912705e-08
tp374
a(F-0.99999992172855556
F-2.2329963433875832e-09
F-6.871280222586762e-08
tp375
a(F-0.99999999255640282
F3.3963581724805181e-08
F-2.8642242799747919e-08
tp376
a(F-1.0000000284491031
F7.6980257668335383e-08
F2.0004589762478986e-08
tp377
a(F-0.99999995298551014
F2.3777633195720682e-08
F5.4186473086303977e-09
tp378
a(F-1.0000002597958764
F5.668014857462822e-08
F-1.0352133417157461e-07
tp379
a(F-0.99999986923902995
F-1.1994617121757756e-07
F1.005534120412932e-07
tp380
a(F-1.0000000254308778
F-3.570501616589894e-09
F9.097341280295268e-08
tp381
a(F-0.99999999134082618
F-1.2671579807665978e-07
F1.1015931677960111e-07
tp382
a(F-0.99999986865467294
F7.8869817343729665e-09
F2.4068064208293549e-08
tp383
a(F-0.9999999997762018
F-6.1033433862434094e-09
F1.1952444367580028e-08
tp384
a(F-1.000000025669741
F-7.6900967482806948e-08
F6.4889783768506959e-08
tp385
a(F-1.0000000920339369
F-2.9023918157733419e-08
F-7.3869641514789919e-08
tp386
a(F-1.0000000262702671
F-1.944368221984405e-09
F1.1482200745760451e-08
tp387
a(F-1.000000019051686
F3.2660590676414358e-08
F8.1919953709430615e-08
tp388
a(F-1.0000001538512335
F-6.1940517603886747e-08
F-1.3175929458597579e-08
tp389
a(F-1.000000059621176
F-9.4526046101606198e-08
F-8.5669267235743973e-09
tp390
a(F-1.0000000427037774
F-3.0258069827482359e-08
F-9.5894777007998755e-08
tp391
a(F-1.0000000172146839
F-5.9540577801442396e-08
F2.614716443360976e-08
tp392
a(F-1.0000000894780308
F1.467477872552081e-08
F5.9188237866436566e-08
tp393
a(F-1.0000002298763375
F1.2760277501300266e-07
F-8.5671596927738847e-08
tp394
a(F-0.99999991509274966
F-2.317884550961935e-09
F4.2553631063313446e-08
tp395
a(F-1.0000000069778723
F-3.3928387210835353e-08
F-1.0551668649938506e-08
tp396
a(F-0.99999998314384975
F-9.704338843619098e-08
F2.8165606291707945e-08
tp397
a(F-1.0000002029110142
F-4.8606584757138194e-08
F-2.0916447684982131e-08
tp398
a(F-0.99999994770675293
F5.3795063514883168e-08
F1.3881006299953924e-07
tp399
a(F-1.0000000546207413
F-7.8971472472488813e-08
F7.1233740017717651e-08
tp400
a(F-1.000000294884603
F2.4283648425438287e-07
F-8.9629003774405192e-08
tp401
a(F-0.99999997938737129
F-2.2465562188322963e-09
F3.4107022095497541e-08
tp402
a(F-1.0000000170682046
F3.0782073279222999e-08
F2.3582948927014513e-08
tp403
a(F-0.99999999480795276
F-8.5547283701359333e-08
F-2.0101036390940408e-09
tp404
a(F-1.0000000600860743
F-1.2561417217504811e-07
F-7.5825727252620823e-08
tp405
a(F-1.0000000102657149
F1.3218354341648642e-08
F-4.0314329874391319e-08
tp406
a(F-0.99999970944733807
F-4.9181545058729625e-08
F-4.0837409009952808e-08
tp407
a(F-0.99999999490802371
F-9.8820374105912379e-10
F-1.0325077282047346e-07
tp408
a(F-1.0000000347190754
F7.1873111018305735e-08
F5.5746220972707761e-08
tp409
a(F-1.0000000365267174
F8.9132572433925361e-09
F-6.9881870512489286e-08
tp410
a(F-1.0000000222524092
F3.684452742902522e-10
F1.6150802917280771e-08
tp411
a(F-0.99999973401510633
F9.3094538522464632e-08
F1.9789863525687679e-08
tp412
a(F-0.99999996812092096
F-1.0354328061623619e-08
F2.9052998673506636e-08
tp413
a(F-0.99999992683794225
F-1.1721047510349081e-07
F-5.1913557452820669e-08
tp414
a(F-0.99999990197420985
F1.4214083909891428e-08
F5.4472804045246903e-09
tp415
a(F-1.0000000073949726
F-1.6226882004755083e-08
F-2.9049167515893259e-09
tp416
a(F-0.99999993619817751
F5.9031643240281539e-08
F-5.9509135397206592e-08
tp417
a(F-1.0000000627733829
F-5.3604781946603453e-08
F-1.5653053075936896e-08
tp418
a(F-1.0000002340661012
F1.0017237217496699e-07
F-6.7750272059186045e-09
tp419
a(F-0.99999999086562852
F-1.3138801868706196e-07
F4.4593616355115273e-08
tp420
a(F-0.99999994499703115
F9.216684243584794e-08
F5.4838903640330727e-08
tp421
a(F-0.99999997435919785
F-7.6094277545735167e-09
F3.1825583501898791e-08
tp422
a(F-1.0000000384128613
F4.991160751366408e-08
F1.0093010271994274e-07
tp423
a(F-1.0000001509702554
F-8.5597839927231689e-10
F9.8633651468560402e-08
tp424
a(F-0.99999990831526553
F7.6463110509905619e-08
F1.6285040205232804e-08
tp425
a(F-1.000000191521246
F4.4923713193867343e-08
F2.006599650883345e-07
tp426
a(F-0.99999983059671882
F-1.0542787265421794e-07
F-2.5109797796574185e-08
tp427
a(F-1.0000000039192165
F7.7866853853691964e-08
F2.0002185685541463e-08
tp428
a(F-0.99999982520344677
F-7.1328586814800587e-08
F-9.9080860405109661e-08
tp429
a(F-0.99999997912920779
F5.1396342293230646e-08
F-1.1726972704018124e-07
tp430
a(F-1.0000000048845719
F8.4127245170151355e-08
F-2.6595895818992688e-08
tp431
a(F-0.99999989077471385
F1.3990462122137615e-09
F5.9167594379516686e-08
tp432
a(F-1.0000003429284474
F-9.4441069631301389e-08
F-2.6194097557663554e-08
tp433
a(F-0.99999989173732295
F-5.2481091472600383e-08
F2.2987651782102603e-09
tp434
a(F-0.99999995917315576
F-2.674702237470683e-09
F5.0403051732317294e-08
tp435
a(F-0.99999998126471179
F9.3762606567793227e-09
F4.1434229824943714e-08
tp436
a(F-0.99999989911919496
F-5.1691599667336163e-08
F8.4317652415677458e-08
tp437
a(F-0.99999981938607263
F-1.5343264880840479e-08
F1.5725702962043897e-09
tp438
a(F-1.0000001929298605
F8.5023693863206518e-08
F9.439320391990691e-08
tp439
a(F-0.99999998376436627
F5.5947237953546392e-09
F8.3007911655386124e-10
tp440
a(F-0.99999995084075388
F6.5357142364774745e-08
F3.0595266320432302e-08
tp441
a(F-0.99999990883443601
F5.7007798481834016e-09
F7.4204503208719075e-08
tp442
a(F-0.99999996852270479
F1.7012540931560238e-08
F-7.9088262605608861e-08
tp443
a(F-0.99999998928659872
F-3.2741502176136805e-08
F-1.2562913020985889e-07
tp444
a(F-1.0000000639436357
F-3.2093111140829578e-08
F5.9468823421227057e-08
tp445
a(F-0.99999981810587046
F1.4775142620493398e-07
F-1.3145173038964231e-07
tp446
a(F-1.0000000973083409
F5.2552562301855232e-09
F4.6903070760606624e-08
tp447
a(F-0.99999980228742325
F9.9945647313859354e-08
F-1.0716275866684555e-07
tp448
a(F-0.99999989814237011
F5.7130026709373283e-08
F1.1799459853634175e-08
tp449
a(F-0.99999996753775999
F1.5980734477394343e-07
F-7.8089469335296258e-08
tp450
a(F-0.99999969228246854
F1.5925680507677953e-07
F1.3937348830594942e-07
tp451
a(F-0.99999994391755465
F2.6210590142738965e-08
F4.6804447428883122e-08
tp452
a(F-1.0000002538293127
F3.3777536323498225e-09
F6.5627126621947696e-08
tp453
a(F-1.0000003316534531
F1.2027386642188276e-08
F-2.0997558802804406e-08
tp454
a(F-0.99999983794208713
F-6.4845334879493066e-08
F4.3312935460448898e-09
tp455
a(F-1.0000000329547518
F-4.3016116674232663e-07
F2.5788521318403923e-08
tp456
a(F-0.99999991344378047
F3.6684016269106223e-08
F-4.7052500118383023e-08
tp457
a(F-0.99999964310081424
F-1.9870470602256773e-08
F-3.3998250881239755e-09
tp458
a(F-0.99999972847499752
F-2.7076755504396033e-08
F6.9597904328588811e-08
tp459
a(F-0.99999997910691107
F-4.0553032487622431e-08
F2.2471119853761934e-08
tp460
a(F-1.0000000876747137
F-1.0842787867559878e-07
F-9.412629808913664e-08
tp461
a(F-0.99999994509451529
F1.017129465097355e-07
F-1.5617432458370217e-08
tp462
a(F-1.0000000161118587
F1.1941115873881358e-07
F2.645138930112978e-08
tp463
a(F-0.99999980052208803
F4.2399390220992927e-08
F-1.8687454428345518e-07
tp464
a(F-1.0000000034551459
F4.7895722055102397e-08
F3.9234328896853299e-08
tp465
a(F-0.99999990795020288
F-2.3773311319530421e-08
F2.1781491943428932e-08
tp466
a(F-1.000000154678351
F-4.8971396715558058e-08
F-6.8442642664479081e-08
tp467
a(F-1.0000000352453007
F-4.6389509567035248e-08
F6.2585003179904675e-08
tp468
a(F-0.99999995613377302
F1.2118718384357408e-07
F7.3538973133224772e-08
tp469
a(F-0.99999995530633301
F6.5482593569754499e-08
F-4.5153697669775283e-08
tp470
a(F4.437533231080077
F0.39103608511496346
F0.51605819951179965
tp471
a(F3.4499601558237893
F-0.37493058891032249
F0.078830531899492851
tp472
a(F4.1738203414814121
F-0.58439867222868547
F0.16572105505997259
tp473
a(F4.0828520647882733
F0.74383223111578056
F0.65898986530534209
tp474
a(F3.7568640227365613
F0.5240667888339714
F0.69522763249269159
tp475
a(F3.8957357585204595
F-0.06802611151570126
F-0.016756616128279944
tp476
a(F4.1429505384241763
F0.15216138057170747
F0.18017837271470261
tp477
a(F4.3062580355112585
F-0.61903399769024003
F0.74229352992039943
tp478
a(F4.3238107731156878
F0.62936809026363294
F-0.1662298660995194
tp479
a(F3.4612312760758428
F-1.743728485730526
F0.46604307093121289
tp480
a(F5.0671205440253271
F-0.143000946612728
F-0.083621020878398067
tp481
a(F4.3084488410989632
F-0.16300034463157642
F0.63785794445089228
tp482
a(F5.2035107009845358
F0.019136242251207136
F0.27965531403861776
tp483
a(F5.0415001519840974
F0.31152346891868232
F0.98546611735914436
tp484
a(F4.0295104159493889
F-0.15834852670486987
F0.51452484670297594
tp485
a(F3.3640588013027735
F-0.46326326626458414
F0.84047977150540465
tp486
a(F4.6687421411445484
F0.11116664158373046
F0.14957241337112226
tp487
a(F3.817802198105138
F-0.043879650938824621
F0.20588832935656332
tp488
a(F4.7151583015954133
F0.43217113624556935
F0.15246131133688623
tp489
a(F4.3790707204400388
F-0.45930224447018242
F0.9054697967864016
tp490
a(F4.2367206313997903
F0.017902103538429692
F0.65906996125850892
tp491
a(F3.3632609812494585
F-0.046020241399454154
F0.56414181331449154
tp492
a(F3.8857091444994607
F0.064762270712701353
F0.83696631827365198
tp493
a(F4.2746773816530688
F-0.35344953648056254
F0.27600489825490238
tp494
a(F5.5434095566269832
F0.20739552602489608
F0.8237726335637694
tp495
a(F4.1933455870239671
F-1.054808379475308
F0.063847056311473471
tp496
a(F3.55957783888514
F-0.12837073741105742
F-0.43375747498144923
tp497
a(F4.1967449072349687
F-0.23206326470514504
F0.66059674130245893
tp498
a(F4.5109970033004432
F0.050258829253077231
F0.73978733238968486
tp499
a(F4.3980614306775205
F0.062281502215111528
F-0.35714388955674525
tp500
a(F4.1369901335101726
F0.59947207881158793
F0.078747475761521413
tp501
a(F4.0835538777133316
F0.055799594478571635
F0.90523877309776357
tp502
a(F4.3651119685293285
F-0.017728923411052033
F0.68976016038388577
tp503
a(F3.4352913105287346
F0.0700716562591297
F-1.4384794190642127
tp504
a(F4.0158210981108429
F0.25292357068976568
F-0.34001466824685167
tp505
a(F4.3162086360112157
F0.073717534382225836
F0.34181153928043728
tp506
a(F4.7826117088351188
F-0.24798559867002723
F0.0029794584125044654
tp507
a(F3.802399725280984
F-0.20347363805784369
F0.22891394887182548
tp508
a(F4.6392991440997227
F-0.67990716234455961
F0.2440629975666182
tp509
a(F5.178314264517482
F0.43009270871267757
F0.34977117757476073
tp510
a(F3.6663866913515539
F-1.2742801131052581
F0.84271561459786071
tp511
a(F3.8725203746350765
F-0.28829844742495325
F-0.13334858394682092
tp512
a(F4.6606410360672452
F-0.66718598351412073
F0.78085001957434397
tp513
a(F4.2517381272735291
F-0.80075414738353379
F0.17228003995707342
tp514
a(F4.4881135347962839
F-0.13015169067373067
F0.66883583221844356
tp515
a(F4.9817213973487666
F0.4660803776325193
F0.33698545739347052
tp516
a(F3.6753466921713778
F0.88140561615520951
F0.18815254760392919
tp517
a(F4.1710148665997906
F-0.11170319902854731
F0.9539914056499943
tp518
a(F4.4500155211609886
F-0.33160619799628988
F0.83424563152567921
tp519
a(F4.9061616918182764
F0.18403312332318977
F0.045899755424978705
tp520
a(F4.0016841680117867
F-0.55345632280347035
F0.13223779215517695
tp521
a(F4.0565488637085956
F0.016218906867992877
F0.048973847448792407
tp522
a(F3.536416040367262
F0.53148507275624235
F-0.27432717587170208
tp523
a(F4.20929360117551
F0.72377377161936507
F0.68236879932940919
tp524
a(F3.9071962985350819
F-0.40598202265363947
F0.014553035974013362
tp525
a(F4.0960383060314278
F-0.65115935630175625
F0.28916127021144544
tp526
a(F4.6111289646343856
F0.75285382091146946
F-0.29366567387988463
tp527
a(F3.146398847019658
F0.14044776939471548
F-0.79406272229266106
tp528
a(F2.9516376239756945
F0.01667170972615617
F0.17321822871902892
tp529
a(F3.9278715603935299
F-1.6037698305631436
F-0.45465986227704303
tp530
a(F3.6947723171028999
F0.87912803212065516
F0.0031535285992507767
tp531
a(F3.128504823080597
F-0.21962160995545199
F0.97581887385627075
tp532
a(F3.8320676910003839
F-0.58591880251776374
F0.18889541897466433
tp533
a(F3.0218969939550764
F-0.60971649713760945
F-0.11711388442463933
tp534
a(F3.23484292493991
F-0.40941069470210878
F0.97508911527918185
tp535
a(F3.1881613012741759
F-0.23729550847848646
F0.17750885228920532
tp536
a(F3.5162589211815973
F-0.22309216508696639
F0.40011874400910719
tp537
a(F3.8287468474324111
F-0.069729581929379503
F-0.13667783561664626
tp538
a(F2.8525627244228002
F-0.18396117720768324
F0.52352993469167286
tp539
a(F3.5997219787898431
F-0.84593464118553308
F0.0038102379089623994
tp540
a(F3.5813415589248523
F-0.056803050524111054
F0.056568487779237175
tp541
a(F4.1410723222905403
F0.18245481948984366
F0.35333717099408091
tp542
a(F3.3086495868467338
F-0.76254503806756935
F1.2039298660548101
tp543
a(F3.4535188733298146
F0.10225636418681239
F0.50147360572698796
tp544
a(F3.7849780203609558
F0.3654631983476202
F0.44425879667414248
tp545
a(F3.4519458164531622
F0.25337633133777526
F0.041171868876018536
tp546
a(F3.1237111049708641
F-1.3387695060233873
F-1.4574074188463784
tp547
a(F4.0254677525110241
F-0.66130436077530508
F0.3491606559905458
tp548
a(F3.0772980005481152
F-0.40614925016405534
F-0.45563818707039294
tp549
a(F3.9428153719968
F0.25668554156326939
F0.22485929995319542
tp550
a(F2.8384139204863055
F-0.42331973077944074
F0.5446613871172814
tp551
a(F4.2562724596835748
F-0.48862516227710345
F0.20877144763040412
tp552
a(F3.9517813030461366
F0.089300071526068336
F-0.47820032824650571
tp553
a(F3.0333106159203154
F0.61383128798475273
F0.38134491325674436
tp554
a(F3.9954493449698223
F-0.12389077071811094
F-0.17871536027239865
tp555
a(F3.6355399946832527
F-0.069489898287861784
F-0.33349594373434943
tp556
a(F2.9556605035398755
F-0.41506836365164812
F0.20879409120431225
tp557
a(F4.706146268617573
F0.23599773341751118
F-0.34959357671375457
tp558
a(F4.8144098787828682
F-0.092829943683168548
F-0.34373699704605487
tp559
a(F3.3618818682948755
F0.51880057916598499
F0.28710896073985026
tp560
a(F3.7487830394201112
F0.26102902535119732
F0.53275383175672242
tp561
a(F3.1298928986461605
F0.2005082343709681
F0.077890314355807622
tp562
a(F3.1932450276868569
F-0.3006264303509707
F0.32549050348563968
tp563
a(F3.6013658273339311
F0.59991398189864342
F0.29289947560771656
tp564
a(F2.9041217231572869
F-0.10780642124525763
F0.21905458345185203
tp565
a(F3.4899961327305604
F-0.29037491805950411
F0.078396045452833629
tp566
a(F4.2395924003454226
F0.23615486764389981
F0.79188378220120192
tp567
a(F3.3184359580976066
F-0.69435796644118475
F0.0083896280492150588
tp568
a(F3.1256328365082826
F0.030172361637386125
F0.68828064904854158
tp569
a(F3.534400823958439
F-0.52778076176734046
F-0.20932347682705421
tp570
a(F3.4810117664405453
F0.63887310216148285
F0.22500488761549331
tp571
a(F2.6840190727269575
F-0.17818121123160879
F-0.26080932735124218
tp572
a(F3.4778491076159268
F-0.50022743794984681
F0.18813333837316826
tp573
a(F4.2406200956829778
F-0.97209814139538242
F0.55251771430574648
tp574
a(F2.3980373369948134
F0.63463663594514896
F-0.16844285794261449
tp575
a(F4.0450776200875787
F-0.0011707016861490782
F-0.44890945766714019
tp576
a(F3.7569889499982345
F0.10733612469522225
F-0.14730009218337348
tp577
a(F3.3920592344361484
F0.25335222914924338
F0.55139456828931799
tp578
a(F3.0971259975445609
F0.49286380858977985
F0.23891789909581318
tp579
a(F3.3488031062952657
F-0.50650151510264063
F-0.11435533529543429
tp580
a(F3.163527999390249
F-0.048816583943631087
F0.48479846524149073
tp581
a(F4.0903684652361667
F0.2002202750420401
F0.17569959658809675
tp582
a(F3.1598205569739082
F0.22552141955119254
F0.42870006511748049
tp583
a(F4.2321223668327086
F0.17098476474654323
F-0.18550441762024672
tp584
a(F3.8230723953306018
F-0.61330599758855442
F-0.25335405346989237
tp585
a(F3.6530869007674491
F0.26926813564203389
F-0.68615359057675862
tp586
a(F3.3071438642974087
F-0.19078139984344133
F0.0030392878679732505
tp587
a(F4.0031102640561675
F0.31671343666896634
F0.59082349356041441
tp588
a(F4.0913122906248516
F-0.077496255704881278
F0.67922397880493124
tp589
a(F3.4210809430146121
F0.29016683559199885
F0.67620459846027714
tp590
a(F4.2947926787760391
F0.35936389308665645
F0.48120072145756709
tp591
a(F3.6104453929172338
F-0.23610754355336017
F0.041878377295256897
tp592
a(F4.2405527819493036
F1.0068252085947234
F1.0012318503792845
tp593
a(F3.0484776417154436
F0.066991674926474065
F0.79310757070680737
tp594
a(F3.5258155069853925
F-0.43651072194650253
F-0.46028806746314266
tp595
a(F3.5191658570577649
F0.45464773584335827
F-0.35250548358727052
tp596
a(F4.0936889691933818
F0.21639768574960883
F0.3163804590191357
tp597
a(F4.3506402833025053
F-0.75322139058733628
F0.48832071142546174
tp598
a(F4.1575510876223687
F-0.37798601620306549
F-0.12110509105010148
tp599
a(F4.5775132577220834
F-0.9631834451368122
F-0.40170924049783041
tp600
a(F4.6765401931856143
F-0.014345695174524664
F-0.20006010159150156
tp601
a(F2.7736296329366112
F-0.65965737501708643
F0.75873135433827921
tp602
a(F3.4634590371880325
F0.056256338682116436
F0.55915962066528402
tp603
a(F3.4504802745371412
F0.022648355345135762
F0.047018260044658922
tp604
a(F3.3133798547197033
F-0.27827385012368744
F0.22372372603845059
tp605
a(F4.6827778093148424
F-0.65582340007314888
F-0.25256697025039276
tp606
a(F3.5292258198324564
F0.86745398045217481
F-0.016820331085602991
tp607
a(F3.3458933736243814
F0.63547278553662423
F0.86535260439733674
tp608
a(F3.3818185605416007
F-0.7883324298277361
F0.96632280500830703
tp609
a(F4.5143501080870898
F0.058834717836086625
F-0.5223081544953263
tp610
a(F2.9137751473135647
F1.4869756243239216
F0.74388927449223874
tp611
a(F3.7874078374714912
F0.28616199197201286
F0.27759513519571488
tp612
a(F4.074063021836051
F0.11569405292672563
F-0.68546442722733802
tp613
a(F4.0818502618782482
F0.1617117252902962
F0.41799186235576413
tp614
a(F4.4098354290998003
F-0.41877330255950751
F0.062248552038017824
tp615
a(F3.4361688028461792
F-0.62635851554645483
F1.23048905222451
tp616
a(F3.9747329900718933
F0.72488695553281257
F0.38959571971283813
tp617
a(F3.3765316106977243
F0.44274364584356202
F-0.17685392002399736
tp618
a(F4.067576640821609
F-0.32767405794243126
F0.68951498007260392
tp619
a(F3.7419953098228609
F-0.24377229170954218
F0.38103086465790836
tp620
a(F4.2525626847646505
F0.64688778018929405
F0.39817085064460112
tp621
a(F2.929078228747894
F0.30599395893037318
F0.055006097309868274
tp622
a(F4.0751713306214388
F-0.0012874335814845317
F0.037911767721301892
tp623
a(F3.7483190266870037
F0.90643465614206864
F-0.81329170596781086
tp624
a(F3.9173233753453562
F-0.087938751922322478
F-0.17410181071868691
tp625
a(F3.5868035000371159
F-1.5619289965614467
F-0.20662646481957081
tp626
a(F3.0714526815076075
F-0.18110939565011686
F0.1365198078127432
tp627
a(F3.9534332460577439
F0.26641888391739621
F1.090970386953801
tp628
a(F3.7882816721341226
F0.15261363000434525
F-0.071791939855807119
tp629
a(F3.9140313552232637
F-0.66245478852300765
F0.23173008359524028
tp630
a(F4.6654931114893445
F-0.48941045483693046
F-0.46036194877473413
tp631
a(F4.2447594086581635
F-0.31959837865463919
F-0.36673792301799057
tp632
a(F3.4570624200936741
F0.54467751297744316
F-0.225715354219856
tp633
a(F4.406160672712117
F0.87624029054369612
F0.13826188914256221
tp634
a(F3.947008831866464
F-0.48740681406826836
F0.56310657936034936
tp635
a(F3.6274440555253564
F0.63844705007283409
F0.26232883071148461
tp636
a(F3.2862019706183965
F-0.43851022508161575
F0.90170367578197519
tp637
a(F3.6768392018489457
F-0.21538924056890929
F0.073352325279620878
tp638
a(F4.0268528702672777
F0.26025504807530075
F0.95077670594820374
tp639
a(F3.5424860573756791
F0.54957023976375563
F0.79695647069471676
tp640
a(F2.9057029056802723
F-0.42103262760701865
F0.61399062543217098
tp641
a(F3.9862768610901744
F-0.77675679771186545
F-0.14456071646122259
tp642
a(F2.926511837725708
F0.081210603262380499
F0.22409508191096528
tp643
a(F3.0755128697542893
F-0.50183037379997419
F0.37725275007374304
tp644
a(F4.0078253585034096
F0.56437054138072429
F0.66817495519931436
tp645
a(F3.9482511431253693
F0.47350129012681563
F0.88556305983734984
tp646
a(F3.4441015028635382
F0.070403552650069257
F0.65130743824131376
tp647
a(F3.480909066004259
F-0.8478857657287211
F1.0044880949233228
tp648
a(F3.2908531464401598
F-0.13819971915657758
F-0.067151811569024833
tp649
a(F4.4994482049904931
F-0.8953533970908687
F-0.030169652804810099
tp650
a(F2.8667648802869374
F-0.23593648057411665
F0.11245946109703153
tp651
a(F3.6120890134606434
F1.2682967626353214
F0.32019489649484223
tp652
a(F3.1342673352639787
F0.16470509328658856
F0.026740544331700034
tp653
a(F3.0814188400110174
F0.094521108055932057
F-0.275517830177887
tp654
a(F2.7963361259018678
F-0.33557872515871301
F-0.39466744674064236
tp655
a(F3.6384505990398663
F-0.86431629357216222
F0.051298862829736169
tp656
a(F3.5120817842985814
F-0.25388731102649054
F0.28767029371873942
tp657
a(F3.7845589891066012
F-0.054706930807970622
F0.82585720875387714
tp658
a(F3.3078256065366056
F-0.66268589829852376
F-0.032669449549426854
tp659
a(F3.6239812267577656
F0.3974238326466919
F1.2273075292109441
tp660
a(F3.4786263307996972
F1.150951013784052
F-0.076217178751377679
tp661
a(F3.2085068083607724
F0.86784845696613777
F-0.22163380853703885
tp662
a(F3.879561101096733
F-1.1880608908557051
F0.45118448106841869
tp663
a(F3.6282315259758269
F-0.60820313219958599
F0.24867614063544208
tp664
a(F3.1871397942600215
F-0.30036450677091198
F0.020135335107710706
tp665
a(F3.8228979057109775
F-0.13742268264858071
F0.26176388436481202
tp666
a(F4.2974475217682118
F-0.0084811773523463252
F-0.062912153135805449
tp667
a(F3.9357439492299529
F-0.17590411471792522
F-0.41531690618552997
tp668
a(F3.9656914161791108
F-0.027286445009502724
F0.10054610660008789
tp669
a(F3.8328071917303448
F0.27853280844652728
F0.15623982750262666
tp670
a(F3.5954489855879181
F0.2325302698519438
F0.5794460815234439
tp671
a(F4.3929046670996055
F-0.20673725856168984
F0.28775249898294164
tp672
a(F4.204079085881375
F-0.11691519286296215
F0.019986351088692844
tp673
a(F4.4274251950261778
F0.04893392060353241
F-0.19939058925700137
tp674
a(F3.8698649428681104
F-0.4700384721965718
F-0.23853588216781385
tp675
a(F4.0696397343509254
F-0.44050780112521615
F-0.3552374970114569
tp676
a(F3.2171427408523634
F0.2476599033451361
F0.34204653286949216
tp677
a(F3.5282254652334561
F0.064752246994769891
F0.055953638480465751
tp678
a(F3.7161503112231236
F0.39414367529353989
F0.28175061262897305
tp679
a(F3.5752749487691444
F0.18093999035167818
F0.32435409065112619
tp680
a(F3.2827642402450747
F0.26129807909610481
F-0.10987014614072543
tp681
a(F3.7854384482044643
F-0.27608863724379251
F0.11847844484381009
tp682
a(F3.6840134542451417
F-0.39814530180329744
F-0.18983553024231359
tp683
a(F4.070353204735591
F0.41812113837281117
F-0.094805098260858589
tp684
a(F3.8408693543690968
F-0.71401708951654808
F0.365832408816257
tp685
a(F3.4420413058463506
F-0.69071903513346289
F-0.02674773959784349
tp686
a(F8.505442374728446
F-2.3869513476881821e-08
F1.4959561589478199e-07
tp687
a(F6.8358702035424024
F-1.9835982412175213e-08
F-2.6272400699411946e-08
tp688
a(F8.8312274960526143
F7.1226426534565235e-08
F-2.9048371263939998e-08
tp689
a(F6.1203218003955655
F-3.0375290061002147e-08
F-1.5648216855623787e-07
tp690
a(F5.717307015550106
F1.353751046817564e-07
F-1.6122990809108728e-07
tp691
a(F5.5444321937601684
F-5.3052087167770878e-08
F-5.647698197996931e-08
tp692
a(F7.779231148713194
F3.1814032297461381e-08
F7.3830456637224984e-08
tp693
a(F6.3369671690521274
F-2.2053377385367057e-07
F-1.4737618680982223e-08
tp694
a(F8.6238197770934359
F-8.9723903418104101e-08
F-4.0677088364304836e-09
tp695
a(F6.2385508744808895
F-2.4194670267263518e-08
F2.3028313922424104e-08
tp696
a(F8.6180306361146908
F-2.2916079256418698e-08
F-4.6512420581734659e-08
tp697
a(F6.9579130478567457
F1.7682728481460686e-07
F-4.20922254829037e-08
tp698
a(F9.6941627807463924
F-4.5740648380032667e-08
F-1.3603303816722701e-08
tp699
a(F8.0991733162695141
F7.4887295475889459e-08
F-8.3939936335042376e-08
tp700
a(F7.8605332823194125
F7.0806669638656672e-08
F-1.6956185344696451e-09
tp701
a(F5.1153223439920303
F-8.6073663307928427e-08
F-1.1934008026237564e-07
tp702
a(F8.9675476029237764
F9.0956334464209476e-08
F-5.6963556094302703e-09
tp703
a(F6.8810169560714005
F7.9639862260449945e-08
F7.2419770180687237e-09
tp704
a(F8.0911739672057781
F9.6147902528542772e-08
F6.3388692073118591e-08
tp705
a(F7.443992995473204
F-4.3062043708630426e-08
F-3.2216521450578739e-08
tp706
a(F9.0748996527680266
F4.5178256247169202e-08
F5.1797094391403675e-08
tp707
a(F5.5284286543141929
F-8.6350085970465784e-08
F1.4070539400279358e-08
tp708
a(F5.356775020589196
F8.3554546836950294e-08
F6.8194338620486405e-08
tp709
a(F7.7102309686698156
F2.7748100706048717e-08
F-2.6275228659500272e-08
tp710
a(F9.7765284952697655
F-4.5910880430710677e-08
F5.4224440493300108e-08
tp711
a(F8.1806302827306432
F5.1543110668461622e-08
F7.228144527360314e-08
tp712
a(F5.9218374093914372
F-2.8034209176297509e-08
F-5.7752605364669307e-08
tp713
a(F8.3324623664471957
F-5.4097087698323776e-08
F-1.3756086092442388e-07
tp714
a(F6.2233369511671164
F-6.5476335464609292e-08
F1.2504704827165369e-08
tp715
a(F8.2870347487730829
F2.4948545451763948e-09
F3.8756096776282334e-08
tp716
a(F7.1961227235935308
F-1.950539312289834e-07
F-4.1168552789017099e-08
tp717
a(F7.5337103262406995
F-5.3554947143652498e-08
F1.6499025923266686e-08
tp718
a(F7.0316073758771154
F-5.7700955680139998e-08
F6.7067456477332144e-08
tp719
a(F7.422837104836157
F-4.5399338288731883e-08
F-3.0313302534779041e-08
tp720
a(F6.5915812938118403
F6.2847926862730219e-08
F2.7432613070033085e-08
tp721
a(F6.372346277267833
F-4.5277929849873999e-08
F7.2418713692457004e-08
tp722
a(F7.368089681546321
F-3.9905260873496218e-08
F7.0349802205882384e-08
tp723
a(F7.7239601164058858
F-1.2742245703023514e-07
F-1.8061095508059566e-07
tp724
a(F7.5596425984192495
F1.0745011813639849e-07
F-8.1608439117530907e-08
tp725
a(F9.7304405732394539
F-6.5802186810515195e-08
F-9.8418996952176485e-08
tp726
a(F7.6886534716466475
F4.8579454237085429e-08
F4.2473815131671699e-08
tp727
a(F6.8276112271595117
F-3.7555897058894061e-08
F-9.5478898343159813e-08
tp728
a(F8.6006889222248155
F-5.3622096540806297e-08
F1.7525810580565349e-08
tp729
a(F7.9113638584316108
F-6.0071818630547114e-09
F-6.4874007499327035e-08
tp730
a(F7.0922580276857756
F-1.6865157048684409e-08
F-8.5666147731089382e-08
tp731
a(F9.5330384854343659
F-8.1722021594288208e-08
F6.1315959198893211e-08
tp732
a(F5.0767128592988264
F1.0665658578545845e-08
F-5.2810424477911511e-08
tp733
a(F7.2679689745713034
F-1.0357264712546055e-07
F9.2590779821044578e-08
tp734
a(F6.3676185632268503
F5.1788304755717718e-09
F2.5470691999984751e-08
tp735
a(F8.1306114487031138
F1.7797011997444656e-07
F-1.9390306915667566e-08
tp736
a(F7.0643771914715128
F-7.4080078515947889e-08
F-7.4957735574088247e-09
tp737
a(F6.0351867319181185
F2.9624727115873384e-08
F4.5202368514907221e-08
tp738
a(F7.9057340828148703
F1.1236433294925519e-07
F-2.1055239773914991e-08
tp739
a(F8.1270551272302782
F9.6907154967240672e-08
F1.3956689159932978e-07
tp740
a(F7.33828828762159
F-3.8796408308172659e-09
F-3.6738816433512511e-09
tp741
a(F6.3638181920019434
F-9.404204456830989e-09
F-3.4406235194239798e-08
tp742
a(F5.1842821616328898
F4.5917688429319981e-08
F-2.9294904280163792e-08
tp743
a(F6.0406509775320476
F5.7511336137849867e-08
F-4.8248860018418327e-08
tp744
a(F4.170321316539491
F2.7209636765945788e-08
F3.6107561385279041e-08
tp745
a(F6.3040619631344681
F-9.9294399258376131e-08
F-4.377776052777449e-08
tp746
a(F6.2183463574181932
F4.122794816652231e-08
F1.4005945292439037e-09
tp747
a(F3.6785847504540081
F1.0460542876344903e-07
F-5.478570086481227e-08
tp748
a(F8.3108733922996461
F-1.5849034973314247e-08
F3.0189027944160785e-09
tp749
a(F4.3729592174090053
F1.9407935036852564e-08
F-1.0904148606272202e-07
tp750
a(F4.750028991532786
F-1.95709366490604e-08
F1.5032455280561408e-09
tp751
a(F4.0840433164250562
F9.4732447664114261e-08
F-4.13670662169352e-08
tp752
a(F6.7580253848129406
F-2.884882643883202e-08
F-1.0519322968249867e-07
tp753
a(F7.4039702759622816
F-7.8456503960211421e-08
F-5.3817267975375671e-08
tp754
a(F3.7529129661977558
F7.9061472035846236e-08
F-1.0261500760222475e-08
tp755
a(F7.2279465854406322
F-1.0260846106113775e-07
F-9.0205816150046303e-08
tp756
a(F4.7327563182857872
F6.2909398579336084e-08
F7.6430430873131172e-08
tp757
a(F4.7877593140670385
F-2.938355603276932e-08
F-1.6162214233617078e-08
tp758
a(F3.8065329800803154
F-6.0107050559032871e-08
F8.6063263182722949e-09
tp759
a(F5.2690399196524673
F-2.0493635233265195e-08
F-1.3815979027498315e-08
tp760
a(F6.7023303350600241
F4.4300739965308367e-08
F1.4077092158615301e-08
tp761
a(F5.1486097451841868
F-1.733819745552978e-07
F1.1419655554512076e-07
tp762
a(F6.7884285730811413
F3.1136124789554742e-09
F8.6703640489460554e-08
tp763
a(F7.0588602463203811
F-8.4261915667127596e-08
F-1.0862018440249699e-07
tp764
a(F6.1551954003301219
F1.1537135202743798e-07
F-6.7339438469815605e-08
tp765
a(F6.8405708295675556
F1.5957862231630315e-07
F-1.1672672384221983e-07
tp766
a(F4.727793512099618
F1.8373304611074559e-07
F2.3630947421082737e-08
tp767
a(F7.6267594732892823
F2.3360400572269846e-08
F-8.5223423873515003e-08
tp768
a(F7.5819862437059911
F-7.116995925926517e-08
F7.3718309456793918e-08
tp769
a(F6.2569338452324832
F1.9713786603148264e-07
F-1.1329991966846364e-07
tp770
a(F7.35320903187562
F1.6851357642622133e-08
F8.4688864587789681e-08
tp771
a(F5.7684304735552043
F-7.3165201008862368e-08
F1.9039623211369872e-08
tp772
a(F5.8864663038135108
F-1.3788732822206384e-08
F-1.2901979928869878e-08
tp773
a(F8.630481815194246
F-2.7612773401131108e-08
F-5.5632882300926667e-08
tp774
a(F8.5379484353016029
F-6.0287682401849452e-08
F5.8466708807713985e-08
tp775
a(F6.8095833981049001
F-9.4911067893832524e-10
F3.3650504605020615e-09
tp776
a(F5.9088404214231174
F-4.8604428481979767e-08
F-9.0136506480931189e-08
tp777
a(F5.6993181317533024
F-3.6937023217831211e-08
F9.5751537809718457e-08
tp778
a(F5.4800482304013194
F6.6189177694297996e-08
F-9.160034419863905e-08
tp779
a(F6.7743928026873785
F-2.9208441221229009e-08
F-1.6265793600922507e-08
tp780
a(F6.1252297126747575
F-1.1393534782300208e-08
F6.0440279447959711e-09
tp781
a(F7.1427973011536947
F-7.2359414460265725e-08
F4.5942372572937984e-08
tp782
a(F7.8720759009937753
F4.3753510148292207e-08
F1.5024062882673661e-08
tp783
a(F6.8714026058188251
F6.9707669192453636e-08
F4.9668169577188337e-08
tp784
a(F4.38177138127935
F5.1868471295790641e-08
F-4.9193474627173828e-08
tp785
a(F6.9806618521739852
F-8.8902646244726213e-08
F1.3626668771138384e-07
tp786
a(F6.7485671380608734
F-9.5284820700314299e-08
F2.8507856164594614e-07
tp787
a(F5.0471430537702489
F-1.5503989203580204e-09
F5.8641123956704178e-08
tp788
a(F5.6195276467581117
F3.6898594846235255e-08
F8.1967429732543451e-08
tp789
a(F7.4370712122104692
F-1.3021865141737976e-07
F-5.9621405590348786e-08
tp790
a(F4.6760167871961755
F8.2269080881047785e-08
F-1.3907931473156054e-08
tp791
a(F6.1399474054365148
F-5.0878907087437142e-08
F-6.0999849171849974e-08
tp792
a(F5.9169334862243357
F5.1440322446083542e-08
F-2.687071642970551e-08
tp793
a(F5.9100710744871288
F-1.3913355823014228e-07
F-4.8754322357069668e-08
tp794
a(F4.1973941101849146
F6.641139194130119e-09
F5.0118925898345879e-08
tp795
a(F5.0280798169764829
F-5.779883105461181e-08
F6.0358047893060984e-08
tp796
a(F5.6869660761290088
F-7.3407329881369776e-08
F-4.7710060346872751e-09
tp797
a(F7.6666173002697429
F8.5598646171192172e-08
F-8.5100227642520565e-08
tp798
a(F4.4816253679637503
F-8.0119834766634312e-08
F-4.2329839855526075e-08
tp799
a(F7.1686887679010818
F1.6187871043626956e-08
F-1.8998405959536058e-08
tp800
a(F7.3449242853248347
F4.1246982718234904e-08
F8.6621217310067777e-08
tp801
a(F7.5188217333639535
F-9.2688159369913592e-09
F-8.2002818535542588e-08
tp802
a(F5.3206673862374769
F1.4432032013900198e-08
F4.0255248023868262e-09
tp803
a(F4.7225888147437978
F-4.9857293626942578e-08
F2.2427057988494425e-08
tp804
a(F5.6858964420922513
F5.2308826159475075e-08
F-7.1922117705902622e-08
tp805
a(F5.9904145573831915
F6.1105473569966762e-08
F5.0780548654927316e-08
tp806
a(F6.661798327384135
F-5.6725218910980146e-08
F-1.5728272684256694e-08
tp807
a(F7.7782121543854972
F-4.0977138571207661e-08
F-4.6397978792356298e-08
tp808
a(F6.3215604097153006
F2.0149005947045495e-07
F4.5448459662367213e-08
tp809
a(F4.8993111161181702
F-1.9585704613689359e-08
F4.4443354663137313e-08
tp810
a(F7.6934071742185584
F-1.0108552506160606e-07
F-3.987551888684493e-08
tp811
a(F7.1181278821725682
F-2.8942768182105283e-08
F-1.2250396252966311e-09
tp812
a(F5.3115426806814874
F-3.3694833562192272e-08
F1.1094106078246568e-08
tp813
a(F8.0088009431145952
F-5.0053989841813973e-09
F-3.588849240010461e-08
tp814
a(F7.9813612693258618
F-4.6266058983945868e-08
F8.4213719553360988e-08
tp815
a(F7.3012546247106096
F4.2934846788966752e-09
F9.6203697008689915e-08
tp816
a(F8.2264203500035169
F6.5638841806325843e-08
F6.1590628153140869e-08
tp817
a(F4.1189059977840934
F3.0188556099375319e-09
F-9.4529696959000376e-08
tp818
a(F5.9540841847779014
F-7.9516332185392002e-08
F-7.8366376277116956e-08
tp819
a(F7.5418724445084848
F-1.1199724081478735e-07
F-1.9242455073786857e-07
tp820
a(F6.0503751485532664
F-5.2789240534423243e-08
F-6.2567913960975829e-08
tp821
a(F9.2059160074573185
F-1.5983494749960414e-08
F-2.1140520445328548e-09
tp822
a(F5.2635586455484598
F-7.0929759843352258e-09
F1.3323217684657607e-07
tp823
a(F6.0712577478458636
F-1.4599669118098291e-07
F9.1451828776456523e-08
tp824
a(F5.2959731752148382
F-7.7874786619247516e-08
F-6.8119125895549359e-08
tp825
a(F8.1803111527554666
F6.5575806562634398e-08
F-1.3075169835730094e-08
tp826
a(F5.1714693749670744
F6.0272115742776577e-08
F2.1358695034834341e-08
tp827
a(F6.9117928497323966
F-9.4162035058076299e-08
F-1.9790821426113325e-08
tp828
a(F6.5135939779152592
F-6.2051360938397693e-08
F-2.5490826782714748e-08
tp829
a(F7.5692640846336126
F-1.8996194117715248e-08
F5.9825199905105819e-08
tp830
a(F6.2580959658440776
F-4.0193941508448461e-09
F-1.8074119978450653e-08
tp831
a(F5.0952258574165077
F2.3077500355128677e-07
F1.0499255576057465e-07
tp832
a(F6.0373528853219227
F1.3356581929357958e-07
F-7.97262744711702e-08
tp833
a(F6.7454208849699775
F9.0140572894803483e-08
F6.7962361072204658e-08
tp834
a(F6.6770753427582967
F-3.1292786861758515e-07
F-5.6742810450316483e-09
tp835
a(F5.6066560294431831
F-2.4584834612539908e-08
F-1.7672862639983578e-07
tp836
a(F7.7257984704026237
F5.4165955498675089e-08
F-4.4569733015364932e-08
tp837
a(F6.7520467807106765
F-1.4140756213198991e-07
F-2.0183079452174013e-07
tp838
a(F6.3902333335789123
F-2.6794626961645918e-08
F9.5346123885065026e-08
tp839
a(F7.2600154300378321
F7.8611549270135583e-08
F-1.2725164921789656e-08
tp840
a(F7.7302306098684763
F1.9467958467522806e-07
F3.7972220034987458e-08
tp841
a(F7.0888562257385406
F7.8324505103921638e-08
F-7.7757364547181851e-08
tp842
a(F5.2533520167037286
F-8.6716012148713162e-08
F4.1591140753638456e-08
tp843
a(F6.0123275461663823
F6.1503578452359875e-08
F1.6727511820135987e-08
tp844
a(F7.6614583938138159
F4.0813812773876634e-08
F4.6927565389154324e-08
tp845
a(F7.2095742920868497
F-2.8815317865138468e-07
F-1.0647372983285663e-07
tp846
a(F7.790048366776861
F2.0501863984279112e-08
F1.2169944163531454e-08
tp847
a(F6.8189423860469001
F7.8519857504844026e-08
F-1.5932655195172174e-09
tp848
a(F5.7351098756077743
F-6.9307842909260842e-08
F-1.4875208842468624e-08
tp849
a(F6.0959728139904801
F-5.2045700860148258e-08
F7.8977739903507427e-09
tp850
a(F5.0631374963253286
F5.6938828318919832e-08
F-4.3443959540923061e-09
tp851
a(F7.5667657673299296
F2.7726359741464535e-07
F-1.1167596891681342e-07
tp852
a(F5.2071760442994703
F3.0890680291495443e-07
F1.4733241449071954e-07
tp853
a(F5.9952208395444666
F1.00220721499511e-07
F-4.2614015427488994e-08
tp854
a(F7.7374492936627544
F-2.0264153732796331e-07
F-1.1563674862102857e-07
tp855
a(F5.1350194128601929
F-7.6529173442807519e-08
F9.93913529256929e-08
tp856
a(F5.5521306095385867
F8.1998067447131007e-08
F2.5578211548804575e-08
tp857
a(F7.6746161624389693
F7.1585115390959686e-08
F1.8527085554609357e-07
tp858
a(F4.6698932694931647
F1.4117403868141309e-07
F5.7241560380560941e-09
tp859
a(F6.232806674410039
F1.4778898549394626e-07
F2.2971362589885302e-09
tp860
a(F7.0391498993645065
F-5.7363848560143538e-08
F-7.8099368083783816e-08
tp861
a(F6.0646587905110154
F-6.5491791545468914e-08
F5.383533974168131e-08
tp862
a(F5.6650765552857658
F1.7878495572887232e-08
F3.7236354000214078e-09
tp863
a(F7.61234659206057
F1.0380067472226528e-08
F-3.378537005715998e-09
tp864
a(F6.9685479844047453
F6.1852772237358522e-08
F8.8931690900295735e-08
tp865
a(F7.7568395655497344
F7.4673658367885309e-08
F2.2903938079466002e-08
tp866
a(F6.3517501676153749
F1.2233256230231859e-07
F-1.0584887633058315e-07
tp867
a(F5.4618125461897211
F3.0431356989879532e-08
F-5.6409957149838874e-08
tp868
a(F4.9195533639192739
F3.5346602755836898e-08
F2.9581400662337387e-08
tp869
a(F5.6332862950745159
F2.7886702280710551e-08
F-4.9230013621226476e-08
tp870
a(F4.6807687957758803
F-1.2109876079691162e-07
F3.6170789030620654e-08
tp871
a(F7.3028982476439861
F9.0134366637073526e-08
F1.2339043564679741e-08
tp872
a(F4.957919998323038
F1.1950667833104944e-07
F-1.0938971195528779e-07
tp873
a(F6.1395388558469097
F4.1900361624769289e-08
F1.5615149173697773e-09
tp874
a(F6.2596307216618312
F-1.3512830188133762e-08
F-1.4360842515159788e-08
tp875
a(F5.0851312372547355
F1.59340449723544e-08
F-4.4245346053628509e-08
tp876
a(F6.5038812599850306
F1.8259811258858338e-07
F-5.7420400878527289e-08
tp877
a(F6.7554075827074485
F1.8008314928152913e-07
F-8.4336703398690815e-08
tp878
a(F5.4675343695266321
F-8.6389666531516696e-09
F-9.265239975242423e-08
tp879
a(F6.587168153580814
F-2.2578190428390599e-08
F-7.245610422756954e-08
tp880
a(F6.7211446870215674
F6.9070714037167136e-08
F-2.3641722579625934e-08
tp881
a(F6.0755192647577019
F-5.3483888193261997e-08
F2.3346419686376407e-08
tp882
a(F7.4484117829873
F4.4232304929892052e-08
F-1.360508372627578e-08
tp883
a(F7.6301454588935655
F-6.9136757208099198e-08
F-1.297410956446754e-08
tp884
a(F4.9304780089343687
F1.1838119373663858e-08
F-1.4138163972887696e-08
tp885
a(F6.2068905955675344
F7.4520594139926288e-09
F-1.8875310203725348e-08
tp886
a(F4.9042934671559673
F2.7601954721845345e-08
F-5.5253774888797125e-08
tp887
a(F6.9158324925612895
F2.2076265260295713e-09
F1.1333399108082176e-08
tp888
a(F5.9384410113236044
F2.9742134088905914e-08
F1.9261701789119456e-08
tp889
a(F7.5695901895382116
F-3.7933399088529995e-08
F-4.4125857412424807e-08
tp890
a(F7.6048677535011056
F-9.1749514652406106e-09
F1.5400266173415389e-08
tp891
a(F4.8048003649183375
F-6.1828246966655342e-08
F5.6739078990730718e-08
tp892
a(F6.4211578885862215
F1.0680958273390218e-07
F3.0027609732030669e-08
tp893
a(F7.9121675752273593
F-4.4739507210067586e-08
F9.2379550897803142e-08
tp894
a(F7.2080511526544777
F-1.7472240187998977e-07
F6.2669201827958432e-08
tp895
a(F7.4513699126118684
F5.3224053830902562e-08
F1.6018073933921073e-07
tp896
a(F6.6219419260360546
F6.7165493833343248e-08
F2.1871440214482618e-09
tp897
a(F5.8311651677271463
F-5.092601940148711e-08
F-8.3443643328351413e-08
tp898
a(F7.6926705053160891
F-9.1292036152879064e-09
F1.170449004384011e-08
tp899
a(F7.2263800681493962
F-2.9809767387867225e-07
F2.9791382916144471e-08
tp900
a(F7.8432892482026455
F8.6355678163840821e-08
F-7.9921722129228101e-08
tp901
a(F6.0680624555524414
F-2.0827884128493679e-07
F-2.872866744496605e-08
tp902
aS'YPD'
p903
aS'YPD'
p904
aS'YPD'
p905
aS'YPD'
p906
aS'YPD'
p907
aS'YPD'
p908
aS'YPD'
p909
aS'YPD'
p910
aS'YPD'
p911
aS'YPD'
p912
aS'YPD'
p913
aS'YPD'
p914
aS'YPD'
p915
aS'YPD'
p916
aS'YPD'
p917
aS'YPD'
p918
aS'YPD'
p919
aS'YPD'
p920
aS'YPD'
p921
aS'YPD'
p922
aS'YPD'
p923
aS'YPD'
p924
aS'YPD'
p925
aS'YPD'
p926
aS'YPD'
p927
aS'YPD'
p928
aS'YPD'
p929
aS'YPD'
p930
aS'YPD'
p931
aS'YPD'
p932
aS'YPD'
p933
aS'YPD'
p934
aS'YPD'
p935
aS'YPD'
p936
aS'YPD'
p937
aS'YPD'
p938
aS'YPD'
p939
aS'YPD'
p940
aS'YPD'
p941
aS'YPD'
p942
aS'YPD'
p943
aS'YPD'
p944
aS'YPD'
p945
aS'YPD'
p946
aS'YPD'
p947
aS'YPD'
p948
aS'YPD'
p949
aS'YPD'
p950
aS'YPD'
p951
aS'YPD'
p952
aS'YPD'
p953
aS'YPD'
p954
aS'YPD'
p955
aS'YPD'
p956
aS'YPD'
p957
aS'YPD'
p958
aS'YPE'
p959
aS'YPE'
p960
aS'YPE'
p961
aS'YPE'
p962
aS'YPE'
p963
aS'YPE'
p964
aS'YPE'
p965
aS'YPE'
p966
aS'YPE'
p967
aS'YPE'
p968
aS'YPE'
p969
aS'YPE'
p970
aS'YPE'
p971
aS'YPE'
p972
aS'YPE'
p973
aS'YPE'
p974
aS'YPE'
p975
aS'YPE'
p976
aS'YPE'
p977
aS'YPE'
p978
aS'YPE'
p979
aS'YPE'
p980
aS'YPE'
p981
aS'YPE'
p982
aS'YPE'
p983
aS'YPE'
p984
aS'YPE'
p985
aS'YPE'
p986
aS'YPE'
p987
aS'YPE'
p988
aS'YPE'
p989
aS'YPE'
p990
aS'YPE'
p991
aS'YPE'
p992
aS'YPE'
p993
aS'YPE'
p994
aS'YPE'
p995
aS'YPE'
p996
aS'YPE'
p997
aS'YPE'
p998
aS'YPE'
p999
aS'YPE'
p1000
aS'YPE'
p1001
aS'YPE'
p1002
aS'YPE'
p1003
aS'YPE'
p1004
aS'YPE'
p1005
aS'YPE'
p1006
aS'YPE'
p1007
aS'YPE'
p1008
aS'YPE'
p1009
aS'YPE'
p1010
aS'YPE'
p1011
aS'YPE'
p1012
aS'YPE'
p1013
aS'YPL'
p1014
aS'YPL'
p1015
aS'YPL'
p1016
aS'YPL'
p1017
aS'YPL'
p1018
aS'YPL'
p1019
aS'YPL'
p1020
aS'YPL'
p1021
aS'YPL'
p1022
aS'YPL'
p1023
aS'YPL'
p1024
aS'YPL'
p1025
aS'YPL'
p1026
aS'YPL'
p1027
aS'YPL'
p1028
aS'YPL'
p1029
aS'YPL'
p1030
aS'YPL'
p1031
aS'YPL'
p1032
aS'YPL'
p1033
aS'YPL'
p1034
aS'YPL'
p1035
aS'YPL'
p1036
aS'YPL'
p1037
aS'YPL'
p1038
aS'YPL'
p1039
aS'YPL'
p1040
aS'YPL'
p1041
aS'YPL'
p1042
aS'YPL'
p1043
aS'YPL'
p1044
aS'YPL'
p1045
aS'YPL'
p1046
aS'YPL'
p1047
aS'YPL'
p1048
aS'YPL'
p1049
aS'YPL'
p1050
aS'YPL'
p1051
aS'YPL'
p1052
aS'YPL'
p1053
aS'YPL'
p1054
aS'YPL'
p1055
aS'YPL'
p1056
aS'YPL'
p1057
aS'YPL'
p1058
aS'YPL'
p1059
aS'YPL'
p1060
aS'YPL'
p1061
aS'YPL'
p1062
aS'YPL'
p1063
aS'YPL'
p1064
aS'YPL'
p1065
aS'YPL'
p1066
aS'YPL'
p1067
aS'YPL'
p1068
aS'YPL'
p1069
aS'YPL'
p1070
aS'YPL'
p1071
aS'YPL'
p1072
aS'YPR'
p1073
aS'YPR'
p1074
aS'YPR'
p1075
aS'YPR'
p1076
aS'YPR'
p1077
aS'YPR'
p1078
aS'YPR'
p1079
aS'YPR'
p1080
aS'YPR'
p1081
aS'YPR'
p1082
aS'YPR'
p1083
aS'YPR'
p1084
aS'YPR'
p1085
aS'YPR'
p1086
aS'YPR'
p1087
aS'YPR'
p1088
aS'YPR'
p1089
aS'YPR'
p1090
aS'YPR'
p1091
aS'YPR'
p1092
aS'YPR'
p1093
aS'YPR'
p1094
aS'YPR'
p1095
aS'YPR'
p1096
aS'YPR'
p1097
aS'YPR'
p1098
aS'YPR'
p1099
aS'YPR'
p1100
aS'YPR'
p1101
aS'YPR'
p1102
aS'YPR'
p1103
aS'YPR'
p1104
aS'YPR'
p1105
aS'YPR'
p1106
aS'YPR'
p1107
aS'YPR'
p1108
aS'YPR'
p1109
aS'YPR'
p1110
aS'YPR'
p1111
aS'YPR'
p1112
aS'YPR'
p1113
aS'YPR'
p1114
aS'YPR'
p1115
aS'YPR'
p1116
aS'YPR'
p1117
aS'YPR'
p1118
atbag18
(g19
(I0
tS'b'
tRp1119
(I1
(L2L
L216L
tg21
(S'f8'
I0
I1
tRp1120
(I3
S'<'
NNNI-1
I-1
I0
tbI00
S'\xbe\xd6q\xf2\xde\xd68@\x83t\x11k\xcc\x007@\x1a\\)\xd3\xc2oC@\x8d$^.\xa5@\x02@\xea%\x02\xd0\x02\xc0\x04@\xdf~!\xd7|\x9d\x00@\'\x1a\xebvD{1@2\x0c\x12g\xd8B\x15@\xa0\xf0\xcd\x9b\xbf\x8e7@\x86\x12d\xc2\x85\xc2\x13@\xa8\xf1r*\xa9\x05<@\xa69\xd5F\xc4\x8d @\xa5\xb0\x800y[?@\xd3YGD\x10\xde.@\xd22\xfd\x8c\xfd\xb21@\x1e\xdb\x9fG1F\xfe?\x1e\xb9\xca\xef\x16\xa55@\'UP\'\x1fT&@\x8e\xe3\xad\'\xd4g*@2\xb0\xe9q\xa4=+@\xae7\xe6z4h@@\xf033K&\x84\x04@dJ/\xc5}4\xe1?\x96H\xd0\x94(\xd50@\x1b\x7fW\xad\xe4K>@\xe9\xe8\xf8Gf\x149@\x84\xc0n\x06\xee\x19)@\xe72\x1d1Go>@M\x8f6@$\x19\xfe?rmE\x1dF\xda4@[\xa4\xf9V\x9b\xb7\'@\x876n&A\xd3\'@\xa3\xf6/\xd3\x01\x05\x18@\x93\xdf)\xa9]\x15.@&R\xf8\xe6"\x0e"@8TW>%\xfd\x0b@m+q\xc7\x16\x87 @\xd0^\xec\x13\x05(9@\xe9&\x97\x16\xfd\xc9,@\xf1B4\xdd\xfc/B@\xa1\xb2\xbb\xcc{\x168@\xf4/c\x8e\xb0  @\xce%\xe8U\xd3\xe80@\xc6\xb9:)s\xbe(@9\x86\xbcG\x0e\x9f\x1a@\xee5\xe2\xa7\xd6\xb7?@\x84\t\x87\xf5?\xbc\xf3?\x04\xaa\xd3cW\xce"@\xddx6d\xcf\x00\x11@`\x17(\xb8Y\x9a*@\xcf\x0f\xb6\x9c\xdb\xe7!@\xea-3\xeb6\xca\x0c@\xab\x97\xdd"{w8@&\x1ak4\xaf\xd71@h\x90ZO\x80c/@K\xc1\x8d\x17\xd3\xf4\x1d@2tx\x92\xe4\xde\xe0?P\xe8\xfe\xdf\xd1\x86$@{q\xb5\x08\xf4\x83\xe8?G\xb7Y*R{!@1\xcf6\x8e\xb2\x89\x11@_N\x06\xc6\xf8\xb3\xca?\xc3\xf3`\xd0mJ0@\xcb\xb3MY\x0bi\xec?:+\x8e@\x18Q\xe7?y:;F[c\xe4?\xf5\x95\xd1\xcd\x1d\x0b"@\xa3\x85-\\\xff\xb1)@\x99\xfbq^+}\xd5?\xb6>W\x01o=%@\xe5\xe2\xb4\x19\xad\x0c\xf0?[\xe4:\xcdJ\xf6\xd1?\xd2\x85\xd6\xc7\xfa\xc8\xd1?\n\x1f\x13X\x1c%\x0b@\x93\xc4\x96/t\xa2&@&\x0c6\x97\x00c\x07@\x83p3\xa8\x16\x7f+@\x07\x95\x84\x88\x97\xbe @\xbe\xfa\xdb\xa7x\xd9\'@\xe5\xf0I\nt\xcc\'@\xe0\x99\xe5\x89\x03\xa3\x06@\x81\x81l\x8b\xe0\x83"@\xff\x1bK\xa8\xe4\x0c,@\x1b+"\xbb\xcf\xc1&@b\xde\xc6\xaf\x9ez\'@-=|\xb2WD\x00@;\x88+\xb2\xd6\x04%@pc\xc0\x851?8@4A>\x082\xb34@\xb9\xba\x94\xe7\x92\xd9&@\xae(p\x95\x92\xc0\x03@\xc5b\xaf\xce\xfca\x17@C\x86q\x9b\xfe\xb3\x17@tpG\x9a\x1c\x08)@\x10i\x1f\x96>A!@\xb9\xda\xaf|}t\'@\xfeP\xad\x96\xf2F0@\xee\x8e\xabj\x8e-#@`\x85\xd1\r&\xdf\xe5?g%|\x8f\xc4\xd41@\xfdx)\xa3`\x9c&@J\xf3b\x89$\xe5\x14@\xf2\xdc\x94\x01\xb5R\xfb?\xe7\xffXN\xdcF @:X\xa3\xfd\x0eD\x10@!\x9c\n;\xcf\xfc\x0e@\xee\xfd\x89B\xa6\xd9\x06@\xed0\xd3"\xdaq\x10@HQf;\xfc\xda\xe0?\x03\xb1\x10\xc9]\xad\xf1?\xd1M\x0f\x00\xe0m\x0e@C\x9fq\xa0\x03\xab)@\x0eVqj\xd6\xf1\xee?\xb7\xef\xac\x98\x9dv\x1a@\x80\xceq\x1c\x91\xc7/@\x9c\x90\x92\x07dq,@\x9f.\xdfj\xa3\xc3\x02@x\xe3\xaa\xf7F\x9d\xe5?<B\xa4N\xb8\xf3\xf3?|\xbd\xd0\x07\xbb\x07\x10@\xec\x05Z|u\x14\x14@j\xd5X\xca\x7fh*@\x81\xcc\xad\xd1l\x95\x13@\xac\x07\x8b0\x9cF\x00@\x83\x00E\xbc\xa045@\xb1J\xf3dF_1@\xff\xa9\x8e\xd6\x98V\xe9?#U\x7f\xce\x8e\xf0.@\x00\xdcE\xe4\xed\xde0@\x91Q\xa9N\xe9g\x11@\xc9\x13\x14\x94q\xa0(@\xcf\xf7\x8c\xdb\x8d8\xea?\xd5`u\xf5&o\x15@\xe94\xa1\xf4\x94-.@\x08_Z\xf5,\xb7\x14@FuW\xa6\x8f\xba8@\xf2\xe7\x8c=\x07\xe2\xf9?\xcb\xb9vl\xf7\x97\x0f@\x14\xfb!\x9d\xe7\n\x01@:%>\xb2\'\xdd1@\xd0\x97+\xe0>\xef\x04@\xb2\xe7-Y\xebo"@\x8e\xb3\x93r\xff\x08\x18@`\x84\x7f\x05*\xb8,@\xd6\xf2[\xd4\xbb\xd4\x07@s"\xe1\xd6\x8d)\xf0?n\xa4%\xb8\x8b\xb7\x15@\xfa[\xadN\xc1q)@\xd9\xcd\xe7T\x00<\x0c@\x9f\x1c\xf6\x9d\xdb\xe8\xfb?\x1b\t\ni\xb8T.@cT\xc7v\x8fV/@\x16\x1b\xeb\xbc&\xf8\x0f@[x\xc2\x91VH,@<\xf3Ww\xbc71@F\xac\xdd1\x7f\xb3/@\x8deW\x08\xab\xe5\x10@\xa1\x01\x949X\xde\x03@\xda\x152\xbc\x9b_5@\xa1\x9d\xb9\x8dq\x83\'@$,;S61 @O\xe0\x1bg\x7f\x88\x14@|\xceb\xd60,\x13@`\xd9\xc7Yjg\xf3?]:(\x01W\xdb\xd1?,\xcbV\xfd"\x8c-@f\xb2`\xff\xd7{\xfa?\x15F,\x0b\xc7\xdd\x12@sni\xcfvV*@JpvH5\x10\xf2?\xd8c\xc7\xb7\xfb\x87\x14@\xe9\x9d\xcf\xe0\xc6\x17/@_\x9d.%\x8b\x0f\x03@\xa5Z\x88~ \xd0!@\xec\xc6;\x81\\\x05\x1c@=\xbe\x85\x9a\xd8\xa2\x05@\xd2\x0b\xcb\xed\x04-\x14@\x98A\x91\xd3\xe3\xe70@*\x8e\x19#NR-@G\xfbCw"\xcd"@5\xe0O\xb4\xc2\xdd#@_\xef4,\x0bi\xfe?\xb0\xe44HN\x9f\xf6?\xd7\xf6\xea\x96\xc89\x17@\xb2\xc6\x05\x91p\x96\x08@4\x1e\xf2[A)\'@1\xf4^\x96g\xaa\xf5?\x0f\x9b\xe5\xd6u\x1f\x11@U\x95*\xf6-\xe9"@\xbb\xed\xe9D\xb2\xc7\xc5?i\xa2\xe4RO\x0c\x19@\x93CG\x96~%)@\xaf?r\x85\xc2\x02\x03@\xd8\xfek\x1fP\r!@!\x9a\xbd`\x1eb*@\x99\x10\xa8\xa7\xb4\x11\x12@\x9e\xb5I\x07F\xae*@\x01\xb8\x8b\xdcQ\xec2@\x1bfQ\xef,\xb0\xd4?BP\xe4\x0cN8\x17@\xf3"\xf3*\x9b\xfd\xe9?\x19\xed}\x01\xa6\x18\x18@!x.\xb5\xa4\x8b\xff?\x19q\xa3\x90\xed\x8b#@\xec\x05\xbb\xa6\xe3L,@\xb3A\xf9**\xff\xcb?\xf8\x0e\xbf\xa3\xdd+/@\x0f\xd1\xe9y\xdbU*@\x82\xe9\x07\xb5{\x010@Rz\xf7c\x9c\x9d,@\xb0\xe5a\xb4s\xfe%@Y\xe1\x19?\xc48\x0b@}\xef\xaa\xc9\xaf\x91*@?\xf8\xed\xc2W\x98\x1c@4sj\xe0\x13\x8e1@\xe2Hh\xb7\xd62\x11@\xc9K\xdf\xa5R\x8eC@t$(~wSA@\xb6\xc9\xb1\xe8`BN@N\xa6\x86\xf5\x94\xcaJ@I\xe7\xa5I\xe3\tN@\x05`\x91\xe5OfE@\xb7\xdd\x8d\x95\xcfGF@\x94&-\x9d\x9e,N@!v{e\x92\xf1C@\xb0\xed\xa3\xb3\x15\xd3I@Ol\n)\x9e\xafJ@\xde\x07\xcayb+O@\x9ac\x98\xc56\xdeQ@\xa2\x85\x1f\x8c\x88\xecQ@J\xbf\xc1E\r\x19G@\xcft\xb5\xaf\xce`C@\xe2_\xbc\x10\x02\xaaO@\xeaH\x0c\xda? F@\x86\xca\xc9\xf9E9P@\x9e\x07\xb7\\L\xa3H@u\x7fZ\xb3\r\x96H@u\x927\x87\x15\xa7D@\xee\xba;\xe0\xa6rD@N\x06\xf7%mfF@\x83pf\xf8\xbdII@\x1a\xa1p9\xcdTK@\xb1k\x94\x00\xc8KM@\xb7\x9c\x87q\xe1lK@\x1c/[\xe6\xb4\xf1F@0\xa9\x9bQ7\xb6A@\x89\xe0\xbc\xcc\x88\xe4I@\xaf2iN\xbe\xe0I@R\r\x8c\xe7{AJ@\xde\'n\x0cX\x90H@\x92f\xcb\x9a]GE@o\xb6\t\xadO"@@=\xce\xda$"\xfaJ@<v{\xda|\xc5G@\xc2\x8b\xcd\x81%RP@\t\x18@\xb0&.Q@5\x9d\xdb`\x852E@\x0e\xae\x1a~\x91\xfcD@%\x7f\xb5r\x97KQ@+\x13\x1a\xf9\xf1\xddF@\x9c\xf3\x05\x89\x8e\x1bI@v\xcf\r6\x9c-M@\xba\xa8\xe6\x0f\x07\xa4G@\x01\x921Z\xbc\xa1G@[V\'\x89\xf9}D@\xda\xf1B2=NO@\xc5Z\xb7\xbc\x10\xa8N@b\xe4\x03\xa2\r\x08E@J\xc7#7\xbfUF@\x89V\x7f^\xa7\x94G@\xcd\x9c\x07\x04\x93yC@\xa7j\xc5Y\'AQ@YX\xf8?\xe0 E@\xd6\xaa<\x92\xde\xed?@\xb5\xed\xe0Q\xd8\xb0>@W\xc9V\x01\xa3\x00D@\xb4\x1a\x9f\xb6\xc6>A@\xd6\x8ai\xb3Pl;@\xcfvS\xcd1rC@\x92;\x0c\x13L(7@\xc86\x150\xb7\xfeA@\x11fMx\x18L@@\xb4+\xb6\xa3@2<@\x02%\xbd\xb0\x0cG:@\xaf\x9bTE\x8c`7@\x08\xe1%\'\xc9\tI@\xdc\xeb]\x8d\x01\xbfB@\\\xa6WW:\xaf@@~p\xba\xb7_S@@s\x8b*\x9bMhB@K\x08$-\x91\xbaH@\x1e\x92\xb2\xe8\xa3w;@sn\x02-`\xaa@@@\x9e>\xdd\xef\xc1I@\xe7\x1b\\\xe7&\x80:@\xa9r49.\xda;@\xdb\xbf\xc5\xa0\xa2\xc08@\xd5\xbcP\x14?=H@{z\xbf\xa4\xae\xf0D@\xd6\xace\xbb\x91P6@\xd7\xf3\x0f\xfa%?D@\x98\xbc\x88\xa7\x14\xe4D@/;I.\xb5\xea9@\x02N\xe2\xb7\x1a\xbbS@\x9c\xea\x82o\x12yN@\xc0\xed\xffV;\x17C@+P\xe7i\x9f\xbfB@\xff\x15z\xf0=\xa8:@2R?\xef\xd3\xc1B@\t\x8e\x1al\xb6O@@\x1f\x90p\x1c\xa7\xb9?@6\x07\xf0wT\xb9B@\x026\xdc\xe2vYO@\xe6-\xb1c\xdd_8@\xee\xec\xc3\x9e\xd0\xb2<@\x9d\x10\xe9\xe3\x18`C@.4)\xcb\xf6\xb4>@\x13\x80\xc4b\xb6@=@c\xbe#\xecc\xfd4@\xef\xbe{Z$\x99B@\xff\x18\xc9\x1c\x9c\xe9:@\xb0\xffneKFC@\x03j\x96h\xbc\xf3;@H\xc5P(\x8f\x87?@\xd4\xa0\x06k\x00\xec2@{VC\x0e\xa4\xd4=@\r\xab\xb0\xec\xf7\xc89@Bo,%\t\xef@@\xabt-]\x85\xd5:@BG\x1bp\\\xf4E@\xdf\x0c=\xda\xafSE@o\x0b\xd8\xe6\'\rI@\x88\x06wQ\x8eC@@\xaa\xad\xf9\x1b\xf6tD@]\xc3\xfc\xc2\xfb\xdc@@\xafT\xb8\'h\xe6H@0\xd0\x85S\xf9\xf9?@\x1b\xa3\xa6\xce\xa1\x9c8@-t-\x86\xa1ME@\t\xc5\x1f|\xe0\x97@@\xc7\xcb\x93\x8c=}E@`n\x12\xed\x81\xa4?@\xdc\x91\x13\x8b\xf1\xabA@\x88\xb2;N\xba\x19H@\xb8N\xdc\x0e$-J@\xd6\x07\xef\x934gJ@\x17\xa66k\x0c-I@\xc2\x8c\xc2\x12\x90\xda6@c\x1a\x04=O}C@B\x11d\x99\x15\xa2@@]\x99&\xdd=\x95@@\x1eAM>\xe7\xbcR@tO{\xc5\xb3\xa8<@\xf5\x01\xcd\xda\xf7\x93B@\xd1\x90\xf3\x9d[u@@\x1c\xf0\xed\x89%\xd1G@h\xd6\xc3\xb0\xa0\xb4D@\xa1.\x92\x17\xf4\xc8C@\xb5oa\x8d\x8d\xe2A@\x12\xabq\x9e\xea\xf0A@\xc5\xeb\x95\xf6\x05wH@\x06H^b>\x19D@\x86\x14<\x17ChG@\xe8$V)q\xfe?@\xde\xb1\xaf\x02\xdfSD@yH\xc9G\xf9}A@\x18\xf3S\xa5\x7f+=@j{\xc22b\xa0A@\xf8\xc4\xe5J\x9a\xa0I@\x8b\x87<\x88^\xeaA@-\x0c\xaaK\xcav@@o\xe9\x9b\x07\x9a\x15@@.vdS\xb4\'F@\xb4\x8a\xc1\x1f\xb5>G@A7\xbd\x11\x9e\xccC@Z\x9f&<e;J@0S\x9cF@lC@2\xdf\xf4\xec\xc4\x07C@\x1d~Y\x13N\tC@4\'%\x05:\x8dI@\xf5\x06Eat.C@$X\x1f,8\xcdB@]\xd2\x1e\x8eb\x15@@W\x17\xf7\xe5\xe7\xc0=@\xea\x8b\xee]\xc0yF@A\x91\x19\xdcB\xb6;@t\x8eb\x0e\xcc\x04=@\xcd\xb8\x82\x15\xd8\x84G@\xf5\xa9}m\x8273@\x1f_\xd0\xd9\x0ft@@P[\x10\xd4\xea\x9e<@\x94f\x14\xc4} P@ni\x0c\x95g\xe46@\x99\xb8\xa60QyA@\x81\x0e\x0b\xdd=\x80A@\x82_\xf4\xe4\x19/>@_\xaamG+\x956@T\xda,\x8c\xd9\xc9F@Yl\xd8\x9c<?2@\xa4\x84jf\xe4\xd16@\x830\xcfX\xf8\xb4;@\xb7\xed\xa6?\\#8@\x06\x99\xa0o\xbaW@@m-\xa9Z\xb4[A@mk\x9e>\xc118@\xc7\xbb\xba\xac\x05\xd47@n\xdb\x9a\x92j1A@IPL\xe9\xe6\xab<@\xd4C\x18$\x87\x92C@\xafi\xbd\xee~\x0c=@9\x1cT\xc1\x04\xd6:@l\xdbIl\x8adH@\xc3Z\xba\xc2\xaa\x05I@\xb5\xb9\xc7\xd8\xc2\xa2D@\xd0\x9a\x80o\xaf\x1b:@\x8f\x12\xf0\xfe\xc9aB@\x88\xc2\x8e\xc8\x8e(>@HU{_\x11\x92K@\xf1g:%kL>@\x13\x8d\r\xef\xc0F:@k\x1a#\x99\xbb\xe4C@Iw\x16\t\xfd\xa9B@_\xee\x9fePV=@\x9b\x80{9\x95\x06>@\xaf9u\xa0\xe2\xf0?@RaOapF6@\x92,\xa0\xb2W\xc4B@<\x12^\xf9\'\x08>@>t\xbeV\x88\xb3=@\xde\x9d\xff\xd2#0?@\x1c+\x9f\x10v\xf1B@m$i\xb8\xe3\xe89@'
tba(lp1121
g14
(g15
(dp1122
g17
g18
(g19
(I0
tS'b'
tRp1123
(I1
(L4L
tg22
I00
(lp1124
g24
ag25
ag26
ag27
atbsg30
NstRp1125
ag14
(g15
(dp1126
g17
g18
(g19
(I0
tS'b'
tRp1127
(I1
(L2L
tg22
I00
(lp1128
g28
ag29
atbsg30
NstRp1129
a(dp1130
S'0.14.1'
p1131
(dp1132
S'axes'
p1133
g13
sS'blocks'
p1134
(lp1135
(dp1136
S'mgr_locs'
p1137
c__builtin__
slice
p1138
(I0
I4
I1
tRp1139
sS'values'
p1140
g253
sa(dp1141
g1137
g1138
(I4
I6
I1
tRp1142
sg1140
g1119
sasstbsb.